
bserver:     file format elf64-x86-64

Contents of section .interp:
 400238 2f6c6962 36342f6c 642d6c69 6e75782d  /lib64/ld-linux-
 400248 7838362d 36342e73 6f2e3200           x86-64.so.2.    
Contents of section .note.ABI-tag:
 400254 04000000 10000000 01000000 474e5500  ............GNU.
 400264 00000000 02000000 06000000 20000000  ............ ...
Contents of section .note.gnu.build-id:
 400274 04000000 14000000 03000000 474e5500  ............GNU.
 400284 da9b2f8b d67cd499 54ae73dd 86b1dfba  ../..|..T.s.....
 400294 c3eea01a                             ....            
Contents of section .gnu.hash:
 400298 03000000 51000000 01000000 06000000  ....Q...........
 4002a8 88c03001 21055009 51000000 53000000  ..0.!.P.Q...S...
 4002b8 56000000 4245d5ec bbe3927c 20fdf409  V...BE.....| ...
 4002c8 b88df10e d971581c ead3ef0e 14980c43  .....qX........C
 4002d8 78496bb6 2945d54c                    xIk.)E.L        
Contents of section .dynsym:
 4002e0 00000000 00000000 00000000 00000000  ................
 4002f0 00000000 00000000 be040000 12000000  ................
 400300 00000000 00000000 00000000 00000000  ................
 400310 3e020000 12000000 00000000 00000000  >...............
 400320 00000000 00000000 bd010000 12000000  ................
 400330 00000000 00000000 00000000 00000000  ................
 400340 500a0000 12000000 00000000 00000000  P...............
 400350 00000000 00000000 d9000000 12000000  ................
 400360 00000000 00000000 00000000 00000000  ................
 400370 b9000000 12000000 00000000 00000000  ................
 400380 00000000 00000000 8c0a0000 12000000  ................
 400390 00000000 00000000 00000000 00000000  ................
 4003a0 c7000000 12000000 00000000 00000000  ................
 4003b0 00000000 00000000 a5020000 12000000  ................
 4003c0 00000000 00000000 00000000 00000000  ................
 4003d0 a3030000 12000000 00000000 00000000  ................
 4003e0 00000000 00000000 1f060000 12000000  ................
 4003f0 00000000 00000000 00000000 00000000  ................
 400400 9f090000 12000000 00000000 00000000  ................
 400410 00000000 00000000 490a0000 12000000  ........I.......
 400420 00000000 00000000 00000000 00000000  ................
 400430 3d090000 12000000 00000000 00000000  =...............
 400440 00000000 00000000 7e000000 12000000  ........~.......
 400450 00000000 00000000 00000000 00000000  ................
 400460 b7050000 12000000 00000000 00000000  ................
 400470 00000000 00000000 92000000 12000000  ................
 400480 00000000 00000000 00000000 00000000  ................
 400490 a0000000 12000000 00000000 00000000  ................
 4004a0 00000000 00000000 ba0a0000 12000000  ................
 4004b0 00000000 00000000 00000000 00000000  ................
 4004c0 2e070000 12000000 00000000 00000000  ................
 4004d0 00000000 00000000 a9090000 12000000  ................
 4004e0 00000000 00000000 00000000 00000000  ................
 4004f0 79050000 12000000 00000000 00000000  y...............
 400500 00000000 00000000 960a0000 12000000  ................
 400510 00000000 00000000 00000000 00000000  ................
 400520 870a0000 12000000 00000000 00000000  ................
 400530 00000000 00000000 52060000 12000000  ........R.......
 400540 00000000 00000000 00000000 00000000  ................
 400550 3f050000 12000000 00000000 00000000  ?...............
 400560 00000000 00000000 65030000 12000000  ........e.......
 400570 00000000 00000000 00000000 00000000  ................
 400580 ff040000 12000000 00000000 00000000  ................
 400590 00000000 00000000 ed080000 12000000  ................
 4005a0 00000000 00000000 00000000 00000000  ................
 4005b0 3c010000 12000000 00000000 00000000  <...............
 4005c0 00000000 00000000 560a0000 12000000  ........V.......
 4005d0 00000000 00000000 00000000 00000000  ................
 4005e0 7a0a0000 12000000 00000000 00000000  z...............
 4005f0 00000000 00000000 59010000 12000000  ........Y.......
 400600 00000000 00000000 00000000 00000000  ................
 400610 0e010000 12000000 00000000 00000000  ................
 400620 00000000 00000000 5d0a0000 12000000  ........].......
 400630 00000000 00000000 00000000 00000000  ................
 400640 76090000 12000000 00000000 00000000  v...............
 400650 00000000 00000000 96040000 12000000  ................
 400660 00000000 00000000 00000000 00000000  ................
 400670 67000000 12000000 00000000 00000000  g...............
 400680 00000000 00000000 00080000 12000000  ................
 400690 00000000 00000000 00000000 00000000  ................
 4006a0 94020000 12000000 00000000 00000000  ................
 4006b0 00000000 00000000 31020000 12000000  ........1.......
 4006c0 00000000 00000000 00000000 00000000  ................
 4006d0 38080000 12000000 00000000 00000000  8...............
 4006e0 00000000 00000000 620a0000 12000000  ........b.......
 4006f0 00000000 00000000 00000000 00000000  ................
 400700 730a0000 12000000 00000000 00000000  s...............
 400710 00000000 00000000 72000000 12000000  ........r.......
 400720 00000000 00000000 00000000 00000000  ................
 400730 39000000 20000000 00000000 00000000  9... ...........
 400740 00000000 00000000 820a0000 12000000  ................
 400750 00000000 00000000 00000000 00000000  ................
 400760 c2080000 12000000 00000000 00000000  ................
 400770 00000000 00000000 9d070000 12000000  ................
 400780 00000000 00000000 00000000 00000000  ................
 400790 7a080000 12000000 00000000 00000000  z...............
 4007a0 00000000 00000000 55040000 12000000  ........U.......
 4007b0 00000000 00000000 00000000 00000000  ................
 4007c0 f2000000 12000000 00000000 00000000  ................
 4007d0 00000000 00000000 e8090000 12000000  ................
 4007e0 00000000 00000000 00000000 00000000  ................
 4007f0 9d040000 12000000 00000000 00000000  ................
 400800 00000000 00000000 c10a0000 12000000  ................
 400810 00000000 00000000 00000000 00000000  ................
 400820 8c060000 12000000 00000000 00000000  ................
 400830 00000000 00000000 25010000 12000000  ........%.......
 400840 00000000 00000000 00000000 00000000  ................
 400850 910a0000 12000000 00000000 00000000  ................
 400860 00000000 00000000 e4000000 12000000  ................
 400870 00000000 00000000 00000000 00000000  ................
 400880 bf060000 12000000 00000000 00000000  ................
 400890 00000000 00000000 ee060000 12000000  ................
 4008a0 00000000 00000000 00000000 00000000  ................
 4008b0 ab000000 12000000 00000000 00000000  ................
 4008c0 00000000 00000000 07060000 12000000  ................
 4008d0 00000000 00000000 00000000 00000000  ................
 4008e0 b50a0000 12000000 00000000 00000000  ................
 4008f0 00000000 00000000 ba030000 12000000  ................
 400900 00000000 00000000 00000000 00000000  ................
 400910 ef030000 12000000 00000000 00000000  ................
 400920 00000000 00000000 a80a0000 12000000  ................
 400930 00000000 00000000 00000000 00000000  ................
 400940 49070000 12000000 00000000 00000000  I...............
 400950 00000000 00000000 02020000 12000000  ................
 400960 00000000 00000000 00000000 00000000  ................
 400970 95090000 12000000 00000000 00000000  ................
 400980 00000000 00000000 02010000 12000000  ................
 400990 00000000 00000000 00000000 00000000  ................
 4009a0 0e000000 20000000 00000000 00000000  .... ...........
 4009b0 00000000 00000000 300a0000 12000000  ........0.......
 4009c0 00000000 00000000 00000000 00000000  ................
 4009d0 fa050000 12000000 00000000 00000000  ................
 4009e0 00000000 00000000 9d0a0000 12000000  ................
 4009f0 00000000 00000000 00000000 00000000  ................
 400a00 0e030000 12000000 00000000 00000000  ................
 400a10 00000000 00000000 c80a0000 12000000  ................
 400a20 00000000 00000000 00000000 00000000  ................
 400a30 2a000000 20000000 00000000 00000000  *... ...........
 400a40 00000000 00000000 6c090000 12000000  ........l.......
 400a50 00000000 00000000 00000000 00000000  ................
 400a60 4d000000 20000000 00000000 00000000  M... ...........
 400a70 00000000 00000000 da0a0000 10001a00  ................
 400a80 97636000 00000000 00000000 00000000  .c`.............
 400a90 ed0a0000 10001b00 b8646000 00000000  .........d`.....
 400aa0 00000000 00000000 c4040000 12000000  ................
 400ab0 40214000 00000000 00000000 00000000  @!@.............
 400ac0 78000000 12000b00 a01f4000 00000000  x.........@.....
 400ad0 00000000 00000000 e10a0000 10001b00  ................
 400ae0 97636000 00000000 00000000 00000000  .c`.............
 400af0 36010000 12000f00 f44a4000 00000000  6........J@.....
 400b00 00000000 00000000 b8080000 11001b00  ................
 400b10 a0636000 00000000 10010000 00000000  .c`.............
 400b20 50030000 12000000 00244000 00000000  P........$@.....
 400b30 00000000 00000000 7c020000 12000000  ........|.......
 400b40 b0244000 00000000 00000000 00000000  .$@.............
Contents of section .dynstr:
 400b50 006c6962 676d702e 736f2e31 30005f49  .libgmp.so.10._I
 400b60 544d5f64 65726567 69737465 72544d43  TM_deregisterTMC
 400b70 6c6f6e65 5461626c 65005f5f 676d6f6e  loneTable.__gmon
 400b80 5f737461 72745f5f 005f4a76 5f526567  _start__._Jv_Reg
 400b90 69737465 72436c61 73736573 005f4954  isterClasses._IT
 400ba0 4d5f7265 67697374 6572544d 436c6f6e  M_registerTMClon
 400bb0 65546162 6c65005f 5f676d70 7a5f6c63  eTable.__gmpz_lc
 400bc0 6d005f5f 676d707a 5f696e69 74005f5f  m.__gmpz_init.__
 400bd0 676d707a 5f696e69 745f7365 745f7374  gmpz_init_set_st
 400be0 72005f5f 676d707a 5f737562 5f756900  r.__gmpz_sub_ui.
 400bf0 5f5f676d 707a5f6d 756c005f 5f676d70  __gmpz_mul.__gmp
 400c00 7a5f696e 76657274 005f5f67 6d707a5f  z_invert.__gmpz_
 400c10 636d705f 7569005f 5f676d70 5f72616e  cmp_ui.__gmp_ran
 400c20 64736565 645f7569 005f5f67 6d707a5f  dseed_ui.__gmpz_
 400c30 67636400 5f5f676d 707a5f61 64645f75  gcd.__gmpz_add_u
 400c40 69005f5f 676d707a 5f757261 6e646f6d  i.__gmpz_urandom
 400c50 6d005f5f 676d707a 5f706f77 6d005f5f  m.__gmpz_powm.__
 400c60 676d705f 72616e64 696e6974 5f646566  gmp_randinit_def
 400c70 61756c74 005f5f67 6d707a5f 6e657874  ault.__gmpz_next
 400c80 7072696d 65005f66 696e6900 5f5f676d  prime._fini.__gm
 400c90 705f7370 72696e74 66006c69 62737464  p_sprintf.libstd
 400ca0 632b2b2e 736f2e36 005f5a53 746c7349  c++.so.6._ZStlsI
 400cb0 63537431 31636861 725f7472 61697473  cSt11char_traits
 400cc0 49634553 61496345 45525374 31336261  IcESaIcEERSt13ba
 400cd0 7369635f 6f737472 65616d49 545f5430  sic_ostreamIT_T0
 400ce0 5f455337 5f524b4e 5374375f 5f637878  _ES7_RKNSt7__cxx
 400cf0 31313132 62617369 635f7374 72696e67  1112basic_string
 400d00 4953345f 53355f54 315f4545 005f5a4e  IS4_S5_T1_EE._ZN
 400d10 53743134 62617369 635f6f66 73747265  St14basic_ofstre
 400d20 616d4963 53743131 63686172 5f747261  amIcSt11char_tra
 400d30 69747349 63454534 6f70656e 45504b63  itsIcEE4openEPKc
 400d40 53743133 5f496f73 5f4f7065 6e6d6f64  St13_Ios_Openmod
 400d50 65005f5a 4e537431 34626173 69635f6f  e._ZNSt14basic_o
 400d60 66737472 65616d49 63537431 31636861  fstreamIcSt11cha
 400d70 725f7472 61697473 49634545 43314576  r_traitsIcEEC1Ev
 400d80 005f5a4e 53614963 45443145 76005f5a  ._ZNSaIcED1Ev._Z
 400d90 4e537437 5f5f6378 78313131 32626173  NSt7__cxx1112bas
 400da0 69635f73 7472696e 67496353 74313163  ic_stringIcSt11c
 400db0 6861725f 74726169 74734963 45536149  har_traitsIcESaI
 400dc0 63454561 5345524b 53345f00 5f5a4e53  cEEaSERKS4_._ZNS
 400dd0 7438696f 735f6261 73653449 6e697444  t8ios_base4InitD
 400de0 31457600 5f5a4e53 6f6c7345 50465253  1Ev._ZNSolsEPFRS
 400df0 6f535f45 005f5a53 74376765 746c696e  oS_E._ZSt7getlin
 400e00 65496353 74313163 6861725f 74726169  eIcSt11char_trai
 400e10 74734963 45536149 63454552 53743133  tsIcESaIcEERSt13
 400e20 62617369 635f6973 74726561 6d49545f  basic_istreamIT_
 400e30 54305f45 53375f52 4e537437 5f5f6378  T0_ES7_RNSt7__cx
 400e40 78313131 32626173 69635f73 7472696e  x1112basic_strin
 400e50 67495334 5f53355f 54315f45 45005f5a  gIS4_S5_T1_EE._Z
 400e60 4e537431 34626173 69635f69 66737472  NSt14basic_ifstr
 400e70 65616d49 63537431 31636861 725f7472  eamIcSt11char_tr
 400e80 61697473 49634545 43314550 4b635374  aitsIcEEC1EPKcSt
 400e90 31335f49 6f735f4f 70656e6d 6f646500  13_Ios_Openmode.
 400ea0 5f5f6778 785f7065 72736f6e 616c6974  __gxx_personalit
 400eb0 795f7630 005f5a4e 4b537437 5f5f6378  y_v0._ZNKSt7__cx
 400ec0 78313131 32626173 69635f73 7472696e  x1112basic_strin
 400ed0 67496353 74313163 6861725f 74726169  gIcSt11char_trai
 400ee0 74734963 45536149 63454534 73697a65  tsIcESaIcEE4size
 400ef0 4576005f 5a537431 315f4861 73685f62  Ev._ZSt11_Hash_b
 400f00 79746573 504b766d 6d005f5a 4e537431  ytesPKvmm._ZNSt1
 400f10 34626173 69635f69 66737472 65616d49  4basic_ifstreamI
 400f20 63537431 31636861 725f7472 61697473  cSt11char_traits
 400f30 49634545 3769735f 6f70656e 4576005f  IcEE7is_openEv._
 400f40 5a4e5374 31346261 7369635f 69667374  ZNSt14basic_ifst
 400f50 7265616d 49635374 31316368 61725f74  reamIcSt11char_t
 400f60 72616974 73496345 45433145 524b4e53  raitsIcEEC1ERKNS
 400f70 74375f5f 63787831 31313262 61736963  t7__cxx1112basic
 400f80 5f737472 696e6749 6353315f 53614963  _stringIcS1_SaIc
 400f90 45454553 7431335f 496f735f 4f70656e  EEESt13_Ios_Open
 400fa0 6d6f6465 005f5a4e 5374375f 5f637878  mode._ZNSt7__cxx
 400fb0 31313132 62617369 635f7374 72696e67  1112basic_string
 400fc0 49635374 31316368 61725f74 72616974  IcSt11char_trait
 400fd0 73496345 53614963 45454331 45504b63  sIcESaIcEEC1EPKc
 400fe0 524b5333 5f005f5a 646c5076 005f5a4e  RKS3_._ZdlPv._ZN
 400ff0 53743133 72616e64 6f6d5f64 65766963  St13random_devic
 401000 65395f4d 5f676574 76616c45 76005f5a  e9_M_getvalEv._Z
 401010 6e616d00 5f5a5374 34656e64 6c496353  nam._ZSt4endlIcS
 401020 74313163 6861725f 74726169 74734963  t11char_traitsIc
 401030 45455253 74313362 61736963 5f6f7374  EERSt13basic_ost
 401040 7265616d 49545f54 305f4553 365f005f  reamIT_T0_ES6_._
 401050 5a4e5374 375f5f63 78783131 31386261  ZNSt7__cxx1118ba
 401060 7369635f 73747269 6e677374 7265616d  sic_stringstream
 401070 49635374 31316368 61725f74 72616974  IcSt11char_trait
 401080 73496345 53614963 45454431 4576005f  sIcESaIcEED1Ev._
 401090 5a4e5374 375f5f63 78783131 31326261  ZNSt7__cxx1112ba
 4010a0 7369635f 73747269 6e674963 53743131  sic_stringIcSt11
 4010b0 63686172 5f747261 69747349 63455361  char_traitsIcESa
 4010c0 49634545 704c4563 005f5a4e 5374375f  IcEEpLEc._ZNSt7_
 4010d0 5f637878 31313132 62617369 635f7374  _cxx1112basic_st
 4010e0 72696e67 49635374 31316368 61725f74  ringIcSt11char_t
 4010f0 72616974 73496345 53614963 45454331  raitsIcESaIcEEC1
 401100 45524b53 345f005f 5a4e4b53 74375f5f  ERKS4_._ZNKSt7__
 401110 63787831 31313262 61736963 5f737472  cxx1112basic_str
 401120 696e6749 63537431 31636861 725f7472  ingIcSt11char_tr
 401130 61697473 49634553 61496345 4537636f  aitsIcESaIcEE7co
 401140 6d706172 6545504b 63005f5a 4e536149  mpareEPKc._ZNSaI
 401150 63454331 4576005f 5a4e5374 38696f73  cEC1Ev._ZNSt8ios
 401160 5f626173 6534496e 69744331 4576005f  _base4InitC1Ev._
 401170 5a4e5374 31346261 7369635f 69667374  ZNSt14basic_ifst
 401180 7265616d 49635374 31316368 61725f74  reamIcSt11char_t
 401190 72616974 73496345 4535636c 6f736545  raitsIcEE5closeE
 4011a0 76005f5a 4e537437 5f5f6378 78313131  v._ZNSt7__cxx111
 4011b0 32626173 69635f73 7472696e 67496353  2basic_stringIcS
 4011c0 74313163 6861725f 74726169 74734963  t11char_traitsIc
 4011d0 45536149 63454544 31457600 5f5a4e53  ESaIcEED1Ev._ZNS
 4011e0 74313462 61736963 5f6f6673 74726561  t14basic_ofstrea
 4011f0 6d496353 74313163 6861725f 74726169  mIcSt11char_trai
 401200 74734963 45453563 6c6f7365 4576005f  tsIcEE5closeEv._
 401210 5a4e5374 31346261 7369635f 6f667374  ZNSt14basic_ofst
 401220 7265616d 49635374 31316368 61725f74  reamIcSt11char_t
 401230 72616974 73496345 45443145 76005f5a  raitsIcEED1Ev._Z
 401240 4e4b5374 375f5f63 78783131 31326261  NKSt7__cxx1112ba
 401250 7369635f 73747269 6e674963 53743131  sic_stringIcSt11
 401260 63686172 5f747261 69747349 63455361  char_traitsIcESa
 401270 49634545 366c656e 67746845 76005f5a  IcEE6lengthEv._Z
 401280 4e536f6c 73455046 52537438 696f735f  NSolsEPFRSt8ios_
 401290 62617365 53305f45 005f5a4e 53743133  baseS0_E._ZNSt13
 4012a0 72616e64 6f6d5f64 65766963 65375f4d  random_device7_M
 4012b0 5f696e69 7445524b 4e537437 5f5f6378  _initERKNSt7__cx
 4012c0 78313131 32626173 69635f73 7472696e  x1112basic_strin
 4012d0 67496353 74313163 6861725f 74726169  gIcSt11char_trai
 4012e0 74734963 45536149 63454545 005f5a53  tsIcESaIcEEE._ZS
 4012f0 74727349 63537431 31636861 725f7472  trsIcSt11char_tr
 401300 61697473 49634553 61496345 45525374  aitsIcESaIcEERSt
 401310 31336261 7369635f 69737472 65616d49  13basic_istreamI
 401320 545f5430 5f455337 5f524e53 74375f5f  T_T0_ES7_RNSt7__
 401330 63787831 31313262 61736963 5f737472  cxx1112basic_str
 401340 696e6749 53345f53 355f5431 5f454500  ingIS4_S5_T1_EE.
 401350 5f5a5374 6c734953 74313163 6861725f  _ZStlsISt11char_
 401360 74726169 74734963 45455253 74313362  traitsIcEERSt13b
 401370 61736963 5f6f7374 7265616d 4963545f  asic_ostreamIcT_
 401380 4553355f 504b6300 5f5a4e53 74313462  ES5_PKc._ZNSt14b
 401390 61736963 5f6f6673 74726561 6d496353  asic_ofstreamIcS
 4013a0 74313163 6861725f 74726169 74734963  t11char_traitsIc
 4013b0 45454331 45504b63 53743133 5f496f73  EEC1EPKcSt13_Ios
 4013c0 5f4f7065 6e6d6f64 65005f5a 4e4b5374  _Openmode._ZNKSt
 4013d0 375f5f63 78783131 31326261 7369635f  7__cxx1112basic_
 4013e0 73747269 6e674963 53743131 63686172  stringIcSt11char
 4013f0 5f747261 69747349 63455361 49634545  _traitsIcESaIcEE
 401400 34646174 61457600 5f5a5374 34636f75  4dataEv._ZSt4cou
 401410 74005f5a 4e4b5374 39626173 69635f69  t._ZNKSt9basic_i
 401420 6f734963 53743131 63686172 5f747261  osIcSt11char_tra
 401430 69747349 63454563 76624576 005f5a4e  itsIcEEcvbEv._ZN
 401440 5374375f 5f637878 31313138 62617369  St7__cxx1118basi
 401450 635f7374 72696e67 73747265 616d4963  c_stringstreamIc
 401460 53743131 63686172 5f747261 69747349  St11char_traitsI
 401470 63455361 49634545 43314553 7431335f  cESaIcEEC1ESt13_
 401480 496f735f 4f70656e 6d6f6465 005f5a4e  Ios_Openmode._ZN
 401490 53743134 62617369 635f6966 73747265  St14basic_ifstre
 4014a0 616d4963 53743131 63686172 5f747261  amIcSt11char_tra
 4014b0 69747349 63454544 31457600 5f5a4e53  itsIcEED1Ev._ZNS
 4014c0 6f6c7345 64005f5a 4e537431 3372616e  olsEd._ZNSt13ran
 4014d0 646f6d5f 64657669 6365375f 4d5f6669  dom_device7_M_fi
 4014e0 6e694576 005f5a4e 536f6c73 4569005f  niEv._ZNSolsEi._
 4014f0 5a4e536f 6c73456d 005f5a4e 4b537437  ZNSolsEm._ZNKSt7
 401500 5f5f6378 78313131 32626173 69635f73  __cxx1112basic_s
 401510 7472696e 67496353 74313163 6861725f  tringIcSt11char_
 401520 74726169 74734963 45536149 63454535  traitsIcESaIcEE5
 401530 635f7374 72457600 5f5a4e53 74375f5f  c_strEv._ZNSt7__
 401540 63787831 31313262 61736963 5f737472  cxx1112basic_str
 401550 696e6749 63537431 31636861 725f7472  ingIcSt11char_tr
 401560 61697473 49634553 61496345 45433145  aitsIcESaIcEEC1E
 401570 76006c69 62676363 5f732e73 6f2e3100  v.libgcc_s.so.1.
 401580 5f556e77 696e645f 52657375 6d65006c  _Unwind_Resume.l
 401590 6962632e 736f2e36 00736f63 6b657400  ibc.so.6.socket.
 4015a0 68746f6e 73007065 72726f72 0074696d  htons.perror.tim
 4015b0 65005f5f 73746163 6b5f6368 6b5f6661  e.__stack_chk_fa
 4015c0 696c006c 69737465 6e005f5f 6378615f  il.listen.__cxa_
 4015d0 61746578 69740073 656e6400 62696e64  atexit.send.bind
 4015e0 00726561 64006d65 6d636d70 00736574  .read.memcmp.set
 4015f0 736f636b 6f707400 67657474 696d656f  sockopt.gettimeo
 401600 66646179 0061746f 69006163 63657074  fday.atoi.accept
 401610 00737472 636d7000 5f5f6c69 62635f73  .strcmp.__libc_s
 401620 74617274 5f6d6169 6e005f65 64617461  tart_main._edata
 401630 005f5f62 73735f73 74617274 005f656e  .__bss_start._en
 401640 64004743 435f332e 3000474c 4942435f  d.GCC_3.0.GLIBC_
 401650 322e3400 474c4942 435f322e 322e3500  2.4.GLIBC_2.2.5.
 401660 43585841 42495f31 2e330047 4c494243  CXXABI_1.3.GLIBC
 401670 58585f33 2e342e31 38004358 58414249  XX_3.4.18.CXXABI
 401680 5f312e33 2e350047 4c494243 58585f33  _1.3.5.GLIBCXX_3
 401690 2e342e32 3100474c 49424358 585f332e  .4.21.GLIBCXX_3.
 4016a0 3400                                 4.              
Contents of section .gnu.version:
 4016a2 00000200 03000200 04000000 00000400  ................
 4016b2 00000300 05000200 02000400 02000000  ................
 4016c2 03000000 00000400 02000300 03000400  ................
 4016d2 04000300 03000300 03000300 00000400  ................
 4016e2 04000300 00000400 06000200 00000200  ................
 4016f2 02000200 02000700 04000000 00000400  ................
 401702 03000300 03000300 00000300 06000400  ................
 401712 02000000 04000000 02000300 00000200  ................
 401722 04000200 03000400 03000200 02000000  ................
 401732 00000900 02000400 02000400 00000200  ................
 401742 00000100 01000200 01000100 01000200  ................
 401752 08000200                             ....            
Contents of section .gnu.version_r:
 401758 01000100 220a0000 10000000 20000000  ...."....... ...
 401768 5026790b 00000900 f20a0000 00000000  P&y.............
 401778 01000200 3f0a0000 10000000 30000000  ....?.......0...
 401788 1469690d 00000700 fa0a0000 10000000  .ii.............
 401798 751a6909 00000400 040b0000 00000000  u.i.............
 4017a8 01000500 4a010000 10000000 00000000  ....J...........
 4017b8 d3af6b05 00000800 100b0000 10000000  ..k.............
 4017c8 68f89702 00000600 1b0b0000 10000000  h...............
 4017d8 75d1af0b 00000500 2a0b0000 10000000  u.......*.......
 4017e8 71f89702 00000300 370b0000 10000000  q.......7.......
 4017f8 74299208 00000200 460b0000 00000000  t)......F.......
Contents of section .rela.dyn:
 401808 f85f6000 00000000 06000000 4e000000  ._`.........N...
 401818 00000000 00000000 a0636000 00000000  .........c`.....
 401828 05000000 57000000 00000000 00000000  ....W...........
Contents of section .rela.plt:
 401838 18606000 00000000 07000000 01000000  .``.............
 401848 00000000 00000000 20606000 00000000  ........ ``.....
 401858 07000000 02000000 00000000 00000000  ................
 401868 28606000 00000000 07000000 03000000  (``.............
 401878 00000000 00000000 30606000 00000000  ........0``.....
 401888 07000000 04000000 00000000 00000000  ................
 401898 38606000 00000000 07000000 05000000  8``.............
 4018a8 00000000 00000000 40606000 00000000  ........@``.....
 4018b8 07000000 06000000 00000000 00000000  ................
 4018c8 48606000 00000000 07000000 07000000  H``.............
 4018d8 00000000 00000000 50606000 00000000  ........P``.....
 4018e8 07000000 08000000 00000000 00000000  ................
 4018f8 58606000 00000000 07000000 09000000  X``.............
 401908 00000000 00000000 60606000 00000000  ........```.....
 401918 07000000 0a000000 00000000 00000000  ................
 401928 68606000 00000000 07000000 0b000000  h``.............
 401938 00000000 00000000 70606000 00000000  ........p``.....
 401948 07000000 0c000000 00000000 00000000  ................
 401958 78606000 00000000 07000000 0d000000  x``.............
 401968 00000000 00000000 80606000 00000000  .........``.....
 401978 07000000 0e000000 00000000 00000000  ................
 401988 88606000 00000000 07000000 0f000000  .``.............
 401998 00000000 00000000 90606000 00000000  .........``.....
 4019a8 07000000 10000000 00000000 00000000  ................
 4019b8 98606000 00000000 07000000 11000000  .``.............
 4019c8 00000000 00000000 a0606000 00000000  .........``.....
 4019d8 07000000 12000000 00000000 00000000  ................
 4019e8 a8606000 00000000 07000000 13000000  .``.............
 4019f8 00000000 00000000 b0606000 00000000  .........``.....
 401a08 07000000 14000000 00000000 00000000  ................
 401a18 b8606000 00000000 07000000 15000000  .``.............
 401a28 00000000 00000000 c0606000 00000000  .........``.....
 401a38 07000000 16000000 00000000 00000000  ................
 401a48 c8606000 00000000 07000000 17000000  .``.............
 401a58 00000000 00000000 d0606000 00000000  .........``.....
 401a68 07000000 53000000 00000000 00000000  ....S...........
 401a78 d8606000 00000000 07000000 18000000  .``.............
 401a88 00000000 00000000 e0606000 00000000  .........``.....
 401a98 07000000 19000000 00000000 00000000  ................
 401aa8 e8606000 00000000 07000000 1a000000  .``.............
 401ab8 00000000 00000000 f0606000 00000000  .........``.....
 401ac8 07000000 1b000000 00000000 00000000  ................
 401ad8 f8606000 00000000 07000000 1c000000  .``.............
 401ae8 00000000 00000000 00616000 00000000  .........a`.....
 401af8 07000000 1d000000 00000000 00000000  ................
 401b08 08616000 00000000 07000000 1e000000  .a`.............
 401b18 00000000 00000000 10616000 00000000  .........a`.....
 401b28 07000000 1f000000 00000000 00000000  ................
 401b38 18616000 00000000 07000000 20000000  .a`......... ...
 401b48 00000000 00000000 20616000 00000000  ........ a`.....
 401b58 07000000 21000000 00000000 00000000  ....!...........
 401b68 28616000 00000000 07000000 22000000  (a`........."...
 401b78 00000000 00000000 30616000 00000000  ........0a`.....
 401b88 07000000 23000000 00000000 00000000  ....#...........
 401b98 38616000 00000000 07000000 24000000  8a`.........$...
 401ba8 00000000 00000000 40616000 00000000  ........@a`.....
 401bb8 07000000 25000000 00000000 00000000  ....%...........
 401bc8 48616000 00000000 07000000 26000000  Ha`.........&...
 401bd8 00000000 00000000 50616000 00000000  ........Pa`.....
 401be8 07000000 27000000 00000000 00000000  ....'...........
 401bf8 58616000 00000000 07000000 28000000  Xa`.........(...
 401c08 00000000 00000000 60616000 00000000  ........`a`.....
 401c18 07000000 29000000 00000000 00000000  ....)...........
 401c28 68616000 00000000 07000000 2a000000  ha`.........*...
 401c38 00000000 00000000 70616000 00000000  ........pa`.....
 401c48 07000000 2b000000 00000000 00000000  ....+...........
 401c58 78616000 00000000 07000000 2c000000  xa`.........,...
 401c68 00000000 00000000 80616000 00000000  .........a`.....
 401c78 07000000 2d000000 00000000 00000000  ....-...........
 401c88 88616000 00000000 07000000 2f000000  .a`........./...
 401c98 00000000 00000000 90616000 00000000  .........a`.....
 401ca8 07000000 30000000 00000000 00000000  ....0...........
 401cb8 98616000 00000000 07000000 31000000  .a`.........1...
 401cc8 00000000 00000000 a0616000 00000000  .........a`.....
 401cd8 07000000 32000000 00000000 00000000  ....2...........
 401ce8 a8616000 00000000 07000000 33000000  .a`.........3...
 401cf8 00000000 00000000 b0616000 00000000  .........a`.....
 401d08 07000000 34000000 00000000 00000000  ....4...........
 401d18 b8616000 00000000 07000000 35000000  .a`.........5...
 401d28 00000000 00000000 c0616000 00000000  .........a`.....
 401d38 07000000 36000000 00000000 00000000  ....6...........
 401d48 c8616000 00000000 07000000 37000000  .a`.........7...
 401d58 00000000 00000000 d0616000 00000000  .........a`.....
 401d68 07000000 38000000 00000000 00000000  ....8...........
 401d78 d8616000 00000000 07000000 39000000  .a`.........9...
 401d88 00000000 00000000 e0616000 00000000  .........a`.....
 401d98 07000000 3a000000 00000000 00000000  ....:...........
 401da8 e8616000 00000000 07000000 3b000000  .a`.........;...
 401db8 00000000 00000000 f0616000 00000000  .........a`.....
 401dc8 07000000 3c000000 00000000 00000000  ....<...........
 401dd8 f8616000 00000000 07000000 3d000000  .a`.........=...
 401de8 00000000 00000000 00626000 00000000  .........b`.....
 401df8 07000000 3e000000 00000000 00000000  ....>...........
 401e08 08626000 00000000 07000000 3f000000  .b`.........?...
 401e18 00000000 00000000 10626000 00000000  .........b`.....
 401e28 07000000 40000000 00000000 00000000  ....@...........
 401e38 18626000 00000000 07000000 41000000  .b`.........A...
 401e48 00000000 00000000 20626000 00000000  ........ b`.....
 401e58 07000000 42000000 00000000 00000000  ....B...........
 401e68 28626000 00000000 07000000 43000000  (b`.........C...
 401e78 00000000 00000000 30626000 00000000  ........0b`.....
 401e88 07000000 58000000 00000000 00000000  ....X...........
 401e98 38626000 00000000 07000000 44000000  8b`.........D...
 401ea8 00000000 00000000 40626000 00000000  ........@b`.....
 401eb8 07000000 45000000 00000000 00000000  ....E...........
 401ec8 48626000 00000000 07000000 46000000  Hb`.........F...
 401ed8 00000000 00000000 50626000 00000000  ........Pb`.....
 401ee8 07000000 47000000 00000000 00000000  ....G...........
 401ef8 58626000 00000000 07000000 49000000  Xb`.........I...
 401f08 00000000 00000000 60626000 00000000  ........`b`.....
 401f18 07000000 4a000000 00000000 00000000  ....J...........
 401f28 68626000 00000000 07000000 4b000000  hb`.........K...
 401f38 00000000 00000000 70626000 00000000  ........pb`.....
 401f48 07000000 4c000000 00000000 00000000  ....L...........
 401f58 78626000 00000000 07000000 4d000000  xb`.........M...
 401f68 00000000 00000000 80626000 00000000  .........b`.....
 401f78 07000000 4f000000 00000000 00000000  ....O...........
 401f88 88626000 00000000 07000000 59000000  .b`.........Y...
 401f98 00000000 00000000                    ........        
Contents of section .init:
 401fa0 4883ec08 488b054d 40200048 85c07405  H...H..M@ .H..t.
 401fb0 e80b0500 004883c4 08c3               .....H....      
Contents of section .plt:
 401fc0 ff354240 2000ff25 44402000 0f1f4000  .5B@ ..%D@ ...@.
 401fd0 ff254240 20006800 000000e9 e0ffffff  .%B@ .h.........
 401fe0 ff253a40 20006801 000000e9 d0ffffff  .%:@ .h.........
 401ff0 ff253240 20006802 000000e9 c0ffffff  .%2@ .h.........
 402000 ff252a40 20006803 000000e9 b0ffffff  .%*@ .h.........
 402010 ff252240 20006804 000000e9 a0ffffff  .%"@ .h.........
 402020 ff251a40 20006805 000000e9 90ffffff  .%.@ .h.........
 402030 ff251240 20006806 000000e9 80ffffff  .%.@ .h.........
 402040 ff250a40 20006807 000000e9 70ffffff  .%.@ .h.....p...
 402050 ff250240 20006808 000000e9 60ffffff  .%.@ .h.....`...
 402060 ff25fa3f 20006809 000000e9 50ffffff  .%.? .h.....P...
 402070 ff25f23f 2000680a 000000e9 40ffffff  .%.? .h.....@...
 402080 ff25ea3f 2000680b 000000e9 30ffffff  .%.? .h.....0...
 402090 ff25e23f 2000680c 000000e9 20ffffff  .%.? .h..... ...
 4020a0 ff25da3f 2000680d 000000e9 10ffffff  .%.? .h.........
 4020b0 ff25d23f 2000680e 000000e9 00ffffff  .%.? .h.........
 4020c0 ff25ca3f 2000680f 000000e9 f0feffff  .%.? .h.........
 4020d0 ff25c23f 20006810 000000e9 e0feffff  .%.? .h.........
 4020e0 ff25ba3f 20006811 000000e9 d0feffff  .%.? .h.........
 4020f0 ff25b23f 20006812 000000e9 c0feffff  .%.? .h.........
 402100 ff25aa3f 20006813 000000e9 b0feffff  .%.? .h.........
 402110 ff25a23f 20006814 000000e9 a0feffff  .%.? .h.........
 402120 ff259a3f 20006815 000000e9 90feffff  .%.? .h.........
 402130 ff25923f 20006816 000000e9 80feffff  .%.? .h.........
 402140 ff258a3f 20006817 000000e9 70feffff  .%.? .h.....p...
 402150 ff25823f 20006818 000000e9 60feffff  .%.? .h.....`...
 402160 ff257a3f 20006819 000000e9 50feffff  .%z? .h.....P...
 402170 ff25723f 2000681a 000000e9 40feffff  .%r? .h.....@...
 402180 ff256a3f 2000681b 000000e9 30feffff  .%j? .h.....0...
 402190 ff25623f 2000681c 000000e9 20feffff  .%b? .h..... ...
 4021a0 ff255a3f 2000681d 000000e9 10feffff  .%Z? .h.........
 4021b0 ff25523f 2000681e 000000e9 00feffff  .%R? .h.........
 4021c0 ff254a3f 2000681f 000000e9 f0fdffff  .%J? .h.........
 4021d0 ff25423f 20006820 000000e9 e0fdffff  .%B? .h ........
 4021e0 ff253a3f 20006821 000000e9 d0fdffff  .%:? .h!........
 4021f0 ff25323f 20006822 000000e9 c0fdffff  .%2? .h"........
 402200 ff252a3f 20006823 000000e9 b0fdffff  .%*? .h#........
 402210 ff25223f 20006824 000000e9 a0fdffff  .%"? .h$........
 402220 ff251a3f 20006825 000000e9 90fdffff  .%.? .h%........
 402230 ff25123f 20006826 000000e9 80fdffff  .%.? .h&........
 402240 ff250a3f 20006827 000000e9 70fdffff  .%.? .h'....p...
 402250 ff25023f 20006828 000000e9 60fdffff  .%.? .h(....`...
 402260 ff25fa3e 20006829 000000e9 50fdffff  .%.> .h)....P...
 402270 ff25f23e 2000682a 000000e9 40fdffff  .%.> .h*....@...
 402280 ff25ea3e 2000682b 000000e9 30fdffff  .%.> .h+....0...
 402290 ff25e23e 2000682c 000000e9 20fdffff  .%.> .h,.... ...
 4022a0 ff25da3e 2000682d 000000e9 10fdffff  .%.> .h-........
 4022b0 ff25d23e 2000682e 000000e9 00fdffff  .%.> .h.........
 4022c0 ff25ca3e 2000682f 000000e9 f0fcffff  .%.> .h/........
 4022d0 ff25c23e 20006830 000000e9 e0fcffff  .%.> .h0........
 4022e0 ff25ba3e 20006831 000000e9 d0fcffff  .%.> .h1........
 4022f0 ff25b23e 20006832 000000e9 c0fcffff  .%.> .h2........
 402300 ff25aa3e 20006833 000000e9 b0fcffff  .%.> .h3........
 402310 ff25a23e 20006834 000000e9 a0fcffff  .%.> .h4........
 402320 ff259a3e 20006835 000000e9 90fcffff  .%.> .h5........
 402330 ff25923e 20006836 000000e9 80fcffff  .%.> .h6........
 402340 ff258a3e 20006837 000000e9 70fcffff  .%.> .h7....p...
 402350 ff25823e 20006838 000000e9 60fcffff  .%.> .h8....`...
 402360 ff257a3e 20006839 000000e9 50fcffff  .%z> .h9....P...
 402370 ff25723e 2000683a 000000e9 40fcffff  .%r> .h:....@...
 402380 ff256a3e 2000683b 000000e9 30fcffff  .%j> .h;....0...
 402390 ff25623e 2000683c 000000e9 20fcffff  .%b> .h<.... ...
 4023a0 ff255a3e 2000683d 000000e9 10fcffff  .%Z> .h=........
 4023b0 ff25523e 2000683e 000000e9 00fcffff  .%R> .h>........
 4023c0 ff254a3e 2000683f 000000e9 f0fbffff  .%J> .h?........
 4023d0 ff25423e 20006840 000000e9 e0fbffff  .%B> .h@........
 4023e0 ff253a3e 20006841 000000e9 d0fbffff  .%:> .hA........
 4023f0 ff25323e 20006842 000000e9 c0fbffff  .%2> .hB........
 402400 ff252a3e 20006843 000000e9 b0fbffff  .%*> .hC........
 402410 ff25223e 20006844 000000e9 a0fbffff  .%"> .hD........
 402420 ff251a3e 20006845 000000e9 90fbffff  .%.> .hE........
 402430 ff25123e 20006846 000000e9 80fbffff  .%.> .hF........
 402440 ff250a3e 20006847 000000e9 70fbffff  .%.> .hG....p...
 402450 ff25023e 20006848 000000e9 60fbffff  .%.> .hH....`...
 402460 ff25fa3d 20006849 000000e9 50fbffff  .%.= .hI....P...
 402470 ff25f23d 2000684a 000000e9 40fbffff  .%.= .hJ....@...
 402480 ff25ea3d 2000684b 000000e9 30fbffff  .%.= .hK....0...
 402490 ff25e23d 2000684c 000000e9 20fbffff  .%.= .hL.... ...
 4024a0 ff25da3d 2000684d 000000e9 10fbffff  .%.= .hM........
 4024b0 ff25d23d 2000684e 000000e9 00fbffff  .%.= .hN........
Contents of section .plt.got:
 4024c0 ff25323b 20006690                    .%2; .f.        
Contents of section .text:
 4024d0 31ed4989 d15e4889 e24883e4 f0505449  1.I..^H..H...PTI
 4024e0 c7c0f04a 400048c7 c1804a40 0048c7c7  ...J@.H...J@.H..
 4024f0 f83e4000 e897ffff fff4660f 1f440000  .>@.......f..D..
 402500 b89f6360 0055482d 98636000 4883f80e  ..c`.UH-.c`.H...
 402510 4889e576 1bb80000 00004885 c074115d  H..v......H..t.]
 402520 bf986360 00ffe066 0f1f8400 00000000  ..c`...f........
 402530 5dc30f1f 4000662e 0f1f8400 00000000  ]...@.f.........
 402540 be986360 00554881 ee986360 0048c1fe  ..c`.UH...c`.H..
 402550 034889e5 4889f048 c1e83f48 01c648d1  .H..H..H..?H..H.
 402560 fe7415b8 00000000 4885c074 0b5dbf98  .t......H..t.]..
 402570 636000ff e00f1f00 5dc3660f 1f440000  c`......].f..D..
 402580 803d293f 20000075 11554889 e5e86eff  .=)? ..u.UH...n.
 402590 ffff5dc6 05163f20 0001f3c3 0f1f4000  ..]...? ......@.
 4025a0 bff05d60 0048833f 007505eb 930f1f00  ..]`.H.?.u......
 4025b0 b8000000 004885c0 74f15548 89e5ffd0  .....H..t.UH....
 4025c0 5de97aff ffff5548 89e589f8 8845fc80  ].z...UH.....E..
 4025d0 7dfc097f 090fb645 fc83c030 eb070fb6  }......E...0....
 4025e0 45fc83c0 575dc355 4889e589 f88845ec  E...W].UH.....E.
 4025f0 c745fc00 0000000f be45ec83 e00185c0  .E.......E......
 402600 741a0fbe 45ec83e0 0185c074 048345fc  t...E......t..E.
 402610 010fbe45 ecd1f888 45ecebdb 8b45fc5d  ...E....E....E.]
 402620 c3554889 e5415641 55415453 4881eca0  .UH..AVAUATSH...
 402630 27000089 bd5cd8ff ff64488b 04252800  '....\...dH..%(.
 402640 00004889 45d831c0 488d8580 d8ffff48  ..H.E.1.H......H
 402650 89c7e809 feffff48 8d9580d8 ffff488d  .......H......H.
 402660 8550ecff ffbe0b4b 40004889 c7e87efc  .P.....K@.H...~.
 402670 ffff488d 9550ecff ff488d85 c0d8ffff  ..H..P...H......
 402680 4889d648 89c7e8e5 1c000048 8d8550ec  H..H.......H..P.
 402690 ffff4889 c7e8c6fa ffff488d 8580d8ff  ..H.......H.....
 4026a0 ff4889c7 e8b7fbff ff488d85 c0d8ffff  .H.......H......
 4026b0 4889c7e8 fa1c0000 89c2488d 8550ecff  H.........H..P..
 4026c0 ff4889d6 4889c7e8 001d0000 488d8580  .H..H.......H...
 4026d0 d8ffffba ffffff7f be000000 004889c7  .............H..
 4026e0 e80d1d00 00c78570 d8ffff00 00000048  .......p.......H
 4026f0 8d85a0d8 ffff4889 c7e812fc ffff8b8d  ......H.........
 402700 70d8ffff ba565555 5589c8f7 ea89c8c1  p....VUUU.......
 402710 f81f29c2 89d089c2 01d201c2 89c829d0  ..)...........).
 402720 85c00f84 91000000 8b8d70d8 ffffba93  ..........p.....
 402730 24499289 c8f7ea8d 040ac1f8 0289c289  $I..............
 402740 c8c1f81f 29c289d0 89c2c1e2 0329c289  ....)........)..
 402750 c829d085 c074628b 8d70d8ff ffba8988  .)...tb..p......
 402760 888889c8 f7ea8d04 0ac1f803 89c289c8  ................
 402770 c1f81f29 c289d089 c2c1e204 29c289c8  ...)........)...
 402780 29d085c0 74338b8d 70d8ffff ba430821  )...t3..p....C.!
 402790 8489c8f7 ea8d040a c1f80489 c289c8c1  ................
 4027a0 f81f29c2 89d089c2 c1e20529 c289c829  ..)........)...)
 4027b0 d085c00f 85260200 004889e0 4889c38b  .....&...H..H...
 4027c0 855cd8ff ff8d5003 85c00f48 c2c1f802  .\....P....H....
 4027d0 48984883 e8014889 8590d8ff ff4889c2  H.H...H......H..
 4027e0 4883c201 4989d541 be000000 004889c2  H...I..A.....H..
 4027f0 4883c201 48899540 d8ffff48 c78548d8  H...H..@...H..H.
 402800 ffff0000 0000488d 5001b810 00000048  ......H.P......H
 402810 83e80148 01d0be10 000000ba 00000000  ...H............
 402820 48f7f648 6bc01048 29c44889 e04883c0  H..Hk..H).H..H..
 402830 00488985 98d8ffff c78574d8 ffff0000  .H........t.....
 402840 0000c785 78d8ffff 00000000 8b855cd8  ....x.........\.
 402850 ffff8d50 0385c00f 48c2c1f8 023b8578  ...P....H....;.x
 402860 d8ffff7e 648b8578 d8ffff83 e00385c0  ...~d..x........
 402870 751f488d 9550ecff ff488d85 80d8ffff  u.H..P...H......
 402880 4889d648 89c7e891 1b000089 8574d8ff  H..H.........t..
 402890 ff8b8574 d8ffff83 e00f8885 6fd8ffff  ...t........o...
 4028a0 c1bd74d8 ffff0848 8b9598d8 ffff8b85  ..t....H........
 4028b0 78d8ffff 48980fb6 8d6fd8ff ff880c02  x...H....o......
 4028c0 838578d8 ffff01eb 83488b85 98d8ffff  ..x......H......
 4028d0 0fb60083 c80889c2 488b8598 d8ffff88  ........H.......
 4028e0 108b855c d8ffff8d 500385c0 0f48c2c1  ...\....P....H..
 4028f0 f8028d48 ff83e801 488b9598 d8ffff48  ...H....H......H
 402900 980fb604 0283c801 89c6488b 9598d8ff  ..........H.....
 402910 ff4863c1 40883402 8b855cd8 ffff8d50  .Hc.@.4...\....P
 402920 0385c00f 48c2c1f8 02489848 89c7e89d  ....H....H.H....
 402930 f6ffff48 898588d8 ffffc785 7cd8ffff  ...H........|...
 402940 00000000 8b855cd8 ffff8d50 0385c00f  ......\....P....
 402950 48c2c1f8 023b857c d8ffff7e 7a8b857c  H....;.|...~z..|
 402960 d8ffff48 63d0488b 8588d8ff ff4801d0  ...Hc.H......H..
 402970 c6000048 8b9598d8 ffff8b85 7cd8ffff  ...H........|...
 402980 48980fb6 04020fbe c089c7e8 57fcffff  H...........W...
 402990 018570d8 ffff8b85 7cd8ffff 4863d048  ..p.....|...Hc.H
 4029a0 8b8588d8 ffff4c8d 2402488b 9598d8ff  ......L.$.H.....
 4029b0 ff8b857c d8ffff48 980fb604 020fbec0  ...|...H........
 4029c0 89c7e8ff fbffff41 88042483 857cd8ff  .......A..$..|..
 4029d0 ff01e96d ffffff48 89dce91f fdffff48  ...m...H.......H
 4029e0 8b9d88d8 ffff488d 85a0d8ff ff4889c7  ......H......H..
 4029f0 e86bf7ff ff488d85 c0d8ffff 4889c7e8  .k...H......H...
 402a00 92190000 4889d848 8b75d864 48333425  ....H..H.u.dH34%
 402a10 28000000 746ceb65 4889c348 8d8550ec  (...tl.eH..H..P.
 402a20 ffff4889 c7e836f7 ffffeb03 4889c348  ..H...6.....H..H
 402a30 8d8580d8 ffff4889 c7e822f8 ffff4889  ......H..."...H.
 402a40 d84889c7 e807faff ff4889dc 4889c348  .H.......H..H..H
 402a50 8d85a0d8 ffff4889 c7e802f7 ffffeb03  ......H.........
 402a60 4889c348 8d85c0d8 ffff4889 c7e82419  H..H......H...$.
 402a70 00004889 d84889c7 e8d3f9ff ffe8fef7  ..H..H..........
 402a80 ffff488d 65e05b41 5c415d41 5e5dc355  ..H.e.[A\A]A^].U
 402a90 4889e548 83ec4048 897dc889 75c46448  H..H..@H.}..u.dH
 402aa0 8b042528 00000048 8945f831 c0c645d7  ..%(...H.E.1..E.
 402ab0 00488d45 e04889c7 e8e3f7ff ff8b45c4  .H.E.H........E.
 402ac0 89c7e85a fbffff48 8945d848 8b4dd848  ...Z...H.E.H.M.H
 402ad0 8d45e0ba 10000000 4889ce48 89c7e8cd  .E......H..H....
 402ae0 f5ffff48 8b45d848 89c7e831 f7ffff8b  ...H.E.H...1....
 402af0 45e485c0 78098b45 e485c07f 02ebbe48  E...x..E.......H
 402b00 8d55e048 8b45c848 89d64889 c7e83ef8  .U.H.E.H..H...>.
 402b10 ffff9048 8b45f864 48330425 28000000  ...H.E.dH3.%(...
 402b20 7405e859 f7ffffc9 c3554889 e5534881  t..Y.....UH..SH.
 402b30 ec882700 004889bd 78d8ffff 64488b04  ..'..H..x...dH..
 402b40 25280000 00488945 e831c048 8d8590d8  %(...H.E.1.H....
 402b50 ffff4889 c7e806f9 ffff488d 9590d8ff  ..H.......H.....
 402b60 ff488d85 30ecffff be0b4b40 004889c7  .H..0.....K@.H..
 402b70 e87bf7ff ff488d95 30ecffff 488d85a0  .{...H..0...H...
 402b80 d8ffff48 89d64889 c7e8e217 0000488d  ...H..H.......H.
 402b90 8530ecff ff4889c7 e8c3f5ff ff488d85  .0...H.......H..
 402ba0 90d8ffff 4889c7e8 b4f6ffff 488d85a0  ....H.......H...
 402bb0 d8ffff48 89c7e8f7 17000089 c2488d85  ...H.........H..
 402bc0 30ecffff 4889d648 89c7e8fd 17000048  0...H..H.......H
 402bd0 8d8590d8 ffffba23 000000be 00000000  .......#........
 402be0 4889c7e8 0a180000 48b83031 32333435  H.......H.012345
 402bf0 36374889 45c048b8 38396162 63646566  67H.E.H.89abcdef
 402c00 488945c8 48b86768 696a6b6c 6d6e4889  H.E.H.ghijklmnH.
 402c10 45d048b8 6f707172 73747576 488945d8  E.H.opqrstuvH.E.
 402c20 c745e077 78797ac6 45e400c7 858cd8ff  .E.wxyz.E.......
 402c30 ff080000 00488d85 87d8ffff 4889c7e8  .....H......H...
 402c40 1cf8ffff 488d9587 d8ffff48 8b8578d8  ....H......H..x.
 402c50 ffffbe13 4b400048 89c7e891 f6ffff48  ....K@.H.......H
 402c60 8d8587d8 ffff4889 c7e8f2f5 ffffc785  ......H.........
 402c70 88d8ffff 00000000 8b8588d8 ffff3b85  ..............;.
 402c80 8cd8ffff 7d3d488d 9530ecff ff488d85  ....}=H..0...H..
 402c90 90d8ffff 4889d648 89c7e87d 17000048  ....H..H...}...H
 402ca0 980fb644 05c00fbe d0488b85 78d8ffff  ...D.....H..x...
 402cb0 89d64889 c7e8b6f4 ffff8385 88d8ffff  ..H.............
 402cc0 01ebb590 488d85a0 d8ffff48 89c7e8c3  ....H......H....
 402cd0 16000090 488b8578 d8ffff48 8b4de864  ....H..x...H.M.d
 402ce0 48330c25 28000000 747deb76 4889c348  H3.%(...t}.vH..H
 402cf0 8d8530ec ffff4889 c7e862f4 ffffeb03  ..0...H...b.....
 402d00 4889c348 8d8590d8 ffff4889 c7e84ef5  H..H......H...N.
 402d10 ffff4889 d84889c7 e833f7ff ff4889c3  ..H..H...3...H..
 402d20 488d8587 d8ffff48 89c7e831 f5ffffeb  H......H...1....
 402d30 174889c3 488b8578 d8ffff48 89c7e81d  .H..H..x...H....
 402d40 f4ffffeb 034889c3 488d85a0 d8ffff48  .....H..H......H
 402d50 89c7e83f 16000048 89d84889 c7e8eef6  ...?...H..H.....
 402d60 ffffe819 f5ffff48 81c48827 00005b5d  .......H...'..[]
 402d70 c3554889 e54883ec 3064488b 04252800  .UH..H..0dH..%(.
 402d80 00004889 45f831c0 488d45e0 be000000  ..H.E.1.H.E.....
 402d90 004889c7 e857f6ff ff488b45 e04869d0  .H...W...H.E.Hi.
 402da0 40420f00 488b45e8 4801d048 8945d848  @B..H.E.H..H.E.H
 402db0 8b45d848 8b4df864 48330c25 28000000  .E.H.M.dH3.%(...
 402dc0 7405e8b9 f4ffffc9 c3554889 e5415741  t........UH..AWA
 402dd0 56415541 54534881 ec280700 0089bdcc  VAUATSH..(......
 402de0 f8ffff48 89b5c0f8 ffff4889 95b8f8ff  ...H......H.....
 402df0 ff64488b 04252800 00004889 45c831c0  .dH..%(...H.E.1.
 402e00 4889e048 89c3e866 ffffff48 8985e0f8  H..H...f...H....
 402e10 ffff8b85 ccf8ffff 89c2c1ea 1f01d0d1  ................
 402e20 f88985dc f8ffff48 8d8500f9 ffff4889  .......H......H.
 402e30 c7e86af4 ffff488d 8510f9ff ff4889c7  ..j...H......H..
 402e40 e85bf4ff ff488d85 20f9ffff 4889c7e8  .[...H.. ...H...
 402e50 4cf4ffff 488d8530 f9ffff48 89c7e83d  L...H..0...H...=
 402e60 f4ffff48 8d8540f9 ffff4889 c7e82ef4  ...H..@...H.....
 402e70 ffff488d 8550f9ff ff4889c7 e81ff4ff  ..H..P...H......
 402e80 ff488d85 60f9ffff 4889c7e8 10f4ffff  .H..`...H.......
 402e90 488d8570 f9ffff48 89c7e801 f4ffff8b  H..p...H........
 402ea0 95dcf8ff ff488d85 00f9ffff 89d64889  .....H........H.
 402eb0 c7e8d9fb ffff8b95 dcf8ffff 488d8510  ............H...
 402ec0 f9ffff89 d64889c7 e8c2fbff ff488d95  .....H.......H..
 402ed0 10f9ffff 488d8d00 f9ffff48 8d8520f9  ....H......H.. .
 402ee0 ffff4889 ce4889c7 e8f3f1ff ff488d8d  ..H..H.......H..
 402ef0 00f9ffff 488d8500 f9ffffba 01000000  ....H...........
 402f00 4889ce48 89c7e8c5 f1ffff48 8d8d10f9  H..H.......H....
 402f10 ffff488d 8510f9ff ffba0100 00004889  ..H...........H.
 402f20 ce4889c7 e8a7f1ff ff488d95 10f9ffff  .H.......H......
 402f30 488d8d00 f9ffff48 8d8530f9 ffff4889  H......H..0...H.
 402f40 ce4889c7 e8e7f2ff ff488d8d 30f9ffff  .H.......H..0...
 402f50 488d8560 f9ffffba 04000000 4889ce48  H..`........H..H
 402f60 89c7e869 f1ffff48 8d8580f9 ffff4889  ...i...H......H.
 402f70 c7e87af2 ffffbf00 000000e8 80f2ffff  ..z.............
 402f80 89c2488d 8580f9ff ff4889d6 4889c7e8  ..H......H..H...
 402f90 acf0ffff 488d9560 f9ffff48 8d8d80f9  ....H..`...H....
 402fa0 ffff488d 8540f9ff ff4889ce 4889c7e8  ..H..@...H..H...
 402fb0 4cf3ffff 488d8d40 f9ffff48 8d8540f9  L...H..@...H..@.
 402fc0 ffffba03 00000048 89ce4889 c7e89ef3  .......H..H.....
 402fd0 ffff488d 9540f9ff ff488d8d 30f9ffff  ..H..@...H..0...
 402fe0 488d8570 f9ffff48 89ce4889 c7e81ef0  H..p...H..H.....
 402ff0 ffff488d 8570f9ff ffbe0100 00004889  ..H..p........H.
 403000 c7e81af0 ffff85c0 7402eb88 488d9530  ........t...H..0
 403010 f9ffff48 8d8d40f9 ffff488d 8550f9ff  ...H..@...H..P..
 403020 ff4889ce 4889c7e8 74f3ffff 488d85c0  .H..H...t...H...
 403030 f9ffff48 89c7e8e5 f3ffff48 8d85c0fb  ...H.......H....
 403040 ffff4889 c7e8d6f3 ffff8b85 dcf8ffff  ..H.............
 403050 48984883 e8014889 85e8f8ff ff4889c2  H.H...H......H..
 403060 4883c201 4989d641 bf000000 004889c2  H...I..A.....H..
 403070 4883c201 4989d441 bd000000 00488d50  H...I..A.....H.P
 403080 01b81000 00004883 e8014801 d0b91000  ......H...H.....
 403090 0000ba00 00000048 f7f1486b c0104829  .......H..Hk..H)
 4030a0 c44889e0 4883c000 488985f0 f8ffffbe  .H..H...H.......
 4030b0 20000000 bf100000 00e81512 000089c2   ...............
 4030c0 488b8db8 f8ffff48 8d85c0f9 ffff4889  H......H......H.
 4030d0 ce4889c7 e817efff ffbe1000 0000bf01  .H..............
 4030e0 000000e8 eb110000 89c2488d 85c0fdff  ..........H.....
 4030f0 ffbec062 60004889 c7e872f1 ffff488b  ...b`.H...r...H.
 403100 85f0f8ff ff488d95 40f9ffff be144b40  .....H..@.....K@
 403110 004889c7 b8000000 00e892f0 ffff488b  .H............H.
 403120 95f0f8ff ff488d85 c0f9ffff 4889d648  .....H......H..H
 403130 89c7e809 f1ffff48 8b85f0f8 ffff488d  .......H......H.
 403140 9520f9ff ffbe144b 40004889 c7b80000  . .....K@.H.....
 403150 0000e859 f0ffff48 8b95f0f8 ffff488d  ...Y...H......H.
 403160 85c0f9ff ff4889d6 4889c7e8 d0f0ffff  .....H..H.......
 403170 488d85c0 f9ffff48 89c7e8c1 f1ffffbe  H......H........
 403180 20000000 bf100000 00e84511 000089c2   .........E.....
 403190 488b8dc0 f8ffff48 8d85c0fb ffff4889  H......H......H.
 4031a0 ce4889c7 e847eeff ff488b85 f0f8ffff  .H...G...H......
 4031b0 488d9550 f9ffffbe 144b4000 4889c7b8  H..P.....K@.H...
 4031c0 00000000 e8e7efff ff488b95 f0f8ffff  .........H......
 4031d0 488d85c0 fbffff48 89d64889 c7e85ef0  H......H..H...^.
 4031e0 ffff488b 85f0f8ff ff488d95 20f9ffff  ..H......H.. ...
 4031f0 be144b40 004889c7 b8000000 00e8aeef  ..K@.H..........
 403200 ffff488b 95f0f8ff ff488d85 c0fbffff  ..H......H......
 403210 4889d648 89c7e825 f0ffff48 8d85c0fb  H..H...%...H....
 403220 ffff4889 c7e816f1 ffff488d 85a0f9ff  ..H.......H.....
 403230 ff4889c7 e8f0f8ff ffbe194b 4000bfa0  .H.........K@...
 403240 636000e8 f8efffff 4889c248 8d85a0f9  c`......H..H....
 403250 ffff4889 c64889d7 e883efff ffbe4021  ..H..H........@!
 403260 40004889 c7e8e6ef ffff488d 95a0f9ff  @.H.......H.....
 403270 ff488d85 dbf8ffff 4889d648 89c7e87d  .H......H..H...}
 403280 0f000048 8985f8f8 ffff488d 85c0fdff  ...H......H.....
 403290 ffbe4843 40004889 c7e862ee ffff4889  ..HC@.H...b...H.
 4032a0 c2488b85 f8f8ffff 4889c648 89d7e8cd  .H......H..H....
 4032b0 edffff48 8d85c0fd ffffbe40 21400048  ...H.......@!@.H
 4032c0 89c7e889 efffff48 89c2488b 85c0f8ff  .......H..H.....
 4032d0 ff4889c6 4889d7e8 64efffff be402140  .H..H...d....@!@
 4032e0 004889c7 e867efff ff4889c2 488b85b8  .H...g...H..H...
 4032f0 f8ffff48 89c64889 d7e842ef ffffbe40  ...H..H...B....@
 403300 21400048 89c7e845 efffffbe 40214000  !@.H...E....@!@.
 403310 4889c7e8 38efffff 488d85c0 fdffff48  H...8...H......H
 403320 89c7e819 f0ffffe8 45faffff 482b85e0  ........E...H+..
 403330 f8ffff48 8985e0f8 ffff660f efc0f248  ...H......f....H
 403340 0f2a85e0 f8fffff2 0f100db9 180000f2  .*..............
 403350 0f5ec1f2 0f1185b0 f8ffffbe 284b4000  .^..........(K@.
 403360 bfa06360 00e8d6ee fffff20f 1085b0f8  ..c`............
 403370 ffff4889 c7e826f1 ffffbe45 4b400048  ..H...&....EK@.H
 403380 89c7e8b9 eeffffbe 40214000 4889c7e8  ........@!@.H...
 403390 bceeffff 488d85a0 f9ffff48 89c7e8bd  ....H......H....
 4033a0 edffff48 8d85c0fd ffff4889 c7e8ceef  ...H......H.....
 4033b0 ffff488d 85c0fbff ff4889c7 e8bfefff  ..H......H......
 4033c0 ff488d85 c0f9ffff 4889c7e8 b0efffff  .H......H.......
 4033d0 4889dc90 488b45c8 64483304 25280000  H...H.E.dH3.%(..
 4033e0 007460eb 594889c3 488d85a0 f9ffff48  .t`.YH..H......H
 4033f0 89c7e869 edffffeb 034889c3 488d85c0  ...i.....H..H...
 403400 fdffff48 89c7e875 efffffeb 034889c3  ...H...u.....H..
 403410 488d85c0 fbffff48 89c7e861 efffffeb  H......H...a....
 403420 034889c3 488d85c0 f9ffff48 89c7e84d  .H..H......H...M
 403430 efffff48 89d84889 c7e812f0 ffffe83d  ...H..H........=
 403440 eeffff48 8d65d85b 415c415d 415e415f  ...H.e.[A\A]A^A_
 403450 5dc35548 89e54157 41564155 41545348  ].UH..AWAVAUATSH
 403460 81ecd800 000089bd 3cffffff 4889b530  ........<...H..0
 403470 ffffff48 899528ff ffff6448 8b042528  ...H..(...dH..%(
 403480 00000048 8945c831 c0488b85 28ffffff  ...H.E.1.H..(...
 403490 4889c7e8 f8eeffff 898554ff ffff4889  H.........T...H.
 4034a0 e04889c3 c7854cff ffff0100 0000b810  .H....L.........
 4034b0 00000089 8550ffff ff8b8554 ffffff48  .....P.....T...H
 4034c0 98488d48 ff48898d 60ffffff 4889c848  .H.H.H..`...H..H
 4034d0 83c00149 89c441bd 00000000 4889c848  ...I..A.....H..H
 4034e0 83c00149 89c641bf 00000000 4889c848  ...I..A.....H..H
 4034f0 8d5001b8 10000000 4883e801 4801d0be  .P......H...H...
 403500 10000000 ba000000 0048f7f6 486bc010  .........H..Hk..
 403510 4829c448 89e04883 c0004889 8568ffff  H).H..H...H..h..
 403520 ff488b85 68ffffff 4889cac6 00004883  .H..h...H.....H.
 403530 c0014883 ea014883 faff740d c6000048  ..H...H...t....H
 403540 83c00148 83ea01eb ed8b8554 ffffff48  ...H.......T...H
 403550 98488d48 ff48898d 70ffffff 4889c848  .H.H.H..p...H..H
 403560 83c00148 898510ff ffff48c7 8518ffff  ...H......H.....
 403570 ff000000 004889c8 4883c001 48898500  .....H..H...H...
 403580 ffffff48 c78508ff ffff0000 00004889  ...H..........H.
 403590 c8488d50 01b81000 00004883 e8014801  .H.P......H...H.
 4035a0 d0be1000 0000ba00 00000048 f7f6486b  ...........H..Hk
 4035b0 c0104829 c44889e0 4883c000 48898578  ..H).H..H...H..x
 4035c0 ffffff48 8b8578ff ffff4889 cac60000  ...H..x...H.....
 4035d0 4883c001 4883ea01 4883faff 740dc600  H...H...H...t...
 4035e0 004883c0 014883ea 01ebedba 00000000  .H...H..........
 4035f0 be010000 00bf0200 0000e891 eaffff89  ................
 403600 8558ffff ff83bd58 ffffff00 0f94c084  .X.....X........
 403610 c07414bf 494b4000 e8a3ebff ffbf0100  .t..IK@.........
 403620 0000e889 ecffffb9 04000000 488d954c  ............H..L
 403630 ffffff8b 8558ffff ff4189c8 4889d1ba  .....X...A..H...
 403640 0f000000 be010000 0089c7e8 20eeffff  ............ ...
 403650 85c00f95 c084c074 14bf574b 4000e85d  .......t..WK@..]
 403660 ebffffbf 01000000 e843ecff ff66c745  .........C...f.E
 403670 800200c7 45840000 00008b85 3cffffff  ....E.......<...
 403680 0fb7c089 c7e876e9 ffff6689 4582ba10  ......v...f.E...
 403690 00000048 8d4d808b 8558ffff ff4889ce  ...H.M...X...H..
 4036a0 89c7e889 e9ffffc1 e81f84c0 7414bf62  ............t..b
 4036b0 4b4000e8 08ebffff bf010000 00e8eeeb  K@..............
 4036c0 ffff8b85 58ffffff be030000 0089c7e8  ....X...........
 4036d0 bcebffff c1e81f84 c07414bf 6e4b4000  .........t..nK@.
 4036e0 e8dbeaff ffbf0100 0000e8c1 ebffffbe  ................
 4036f0 754b4000 bfa06360 00e842eb ffff4889  uK@...c`..B...H.
 403700 c28b853c ffffff89 c64889d7 e81fedff  ...<.....H......
 403710 ffbe4021 40004889 c7e832eb ffff488d  ..@!@.H...2...H.
 403720 9550ffff ff488d4d 808b8558 ffffff48  .P...H.M...X...H
 403730 89ce89c7 e8b7e9ff ff89855c ffffff8b  ...........\....
 403740 855cffff ffc1e81f 84c07414 bf884b40  .\........t...K@
 403750 00e86aea ffffbf01 000000e8 50ebffff  ..j.........P...
 403760 8b8554ff ffff4863 d0488b8d 68ffffff  ..T...Hc.H..h...
 403770 8b855cff ffff4889 ce89c7e8 e0ebffff  ..\...H.........
 403780 4885c00f 95c084c0 0f84c300 0000488b  H.............H.
 403790 8d68ffff ff488d45 90ba1000 00004889  .h...H.E......H.
 4037a0 ce4889c7 e807e9ff ff488b85 30ffffff  .H.......H..0...
 4037b0 4889c7e8 58e9ffff 4889c148 8d45a0ba  H...X...H..H.E..
 4037c0 10000000 4889ce48 89c7e8e1 e8ffff48  ....H..H.......H
 4037d0 8b8528ff ffff4889 c7e832e9 ffff4889  ..(...H...2...H.
 4037e0 c1488d45 b0ba1000 00004889 ce4889c7  .H.E......H..H..
 4037f0 e8bbe8ff ff488d4d b0488d55 a0488d75  .....H.M.H.U.H.u
 403800 90488d45 904889c7 e833ecff ff488b85  .H.E.H...3...H..
 403810 78ffffff 488d5590 be8f4b40 004889c7  x...H.U...K@.H..
 403820 b8000000 00e886e9 ffff8b85 54ffffff  ............T...
 403830 4863d048 8bb578ff ffff8b85 5cffffff  Hc.H..x.....\...
 403840 b9000000 0089c7e8 04e9ffff e90fffff  ................
 403850 ff4889dc e945fcff ff554889 e5534881  .H...E...UH..SH.
 403860 ece80800 0089bd1c f7ffff48 89b510f7  ...........H....
 403870 ffff6448 8b042528 00000048 8945e831  ..dH..%(...H.E.1
 403880 c0488d85 c0f9ffff ba080000 00bec062  .H.............b
 403890 60004889 c7e8e6eb ffff488d 8530f7ff  `.H.......H..0..
 4038a0 ff4889c7 e867eaff ff488d85 c0f9ffff  .H...g...H......
 4038b0 4889c7e8 18ebffff 84c00f84 96040000  H...............
 4038c0 488b9510 f7ffff48 8d8520f7 ffff4889  H......H.. ...H.
 4038d0 d64889c7 e8270900 00488985 28f7ffff  .H...'...H..(...
 4038e0 be080000 00bf1000 0000e8e4 09000089  ................
 4038f0 c2488d85 30f8ffff 89d64889 c7e89ee8  .H..0.....H.....
 403900 ffff488d 8530f8ff ff4883c0 10be4843  ..H..0...H....HC
 403910 40004889 c7e8e6e7 ffff4889 c2488b85  @.H.......H..H..
 403920 28f7ffff 4889c648 89d7e851 e7ffff48  (...H..H...Q...H
 403930 8d8550f7 ffff4889 c7e8d2e9 ffff488d  ..P...H.......H.
 403940 9550f7ff ff488d85 30f8ffff 4889d648  .P...H..0...H..H
 403950 89c7e879 e9ffff48 8d8521f7 ffff4889  ...y...H..!...H.
 403960 c7e8faea ffff488d 9521f7ff ff488d85  ......H..!...H..
 403970 70f7ffff be134b40 004889c7 e86fe9ff  p.....K@.H...o..
 403980 ff488d85 21f7ffff 4889c7e8 d0e8ffff  .H..!...H.......
 403990 488d8521 f7ffff48 89c7e8c1 eaffff48  H..!...H.......H
 4039a0 8d9521f7 ffff488d 8590f7ff ffbe134b  ..!...H........K
 4039b0 40004889 c7e836e9 ffff488d 8521f7ff  @.H...6...H..!..
 4039c0 ff4889c7 e897e8ff ffc68522 f7ffff00  .H........."....
 4039d0 c78524f7 ffff0000 0000c685 23f7ffff  ..$.........#...
 4039e0 000fb685 23f7ffff 83f00184 c0743948  ....#........t9H
 4039f0 8d9530f7 ffff488d 85c0f9ff ff4889d6  ..0...H......H..
 403a00 4889c7e8 48e6ffff 488b1048 83ea1848  H...H...H..H...H
 403a10 8b124801 d04889c7 e8a3e8ff ff84c074  ..H..H.........t
 403a20 07b80100 0000eb05 b8000000 0084c00f  ................
 403a30 84c30000 00488d85 30f7ffff be134b40  .....H..0.....K@
 403a40 004889c7 e8fc0900 0084c074 0fc78524  .H.........t...$
 403a50 f7ffffff ffffffe9 90000000 8b8524f7  ..............$.
 403a60 ffff83f8 01742f83 f802744e 85c0757c  .....t/...tN..u|
 403a70 488d9550 f7ffff48 8d8530f7 ffff4889  H..P...H..0...H.
 403a80 d64889c7 e8e60900 0084c074 58c68522  .H.........tX.."
 403a90 f7ffff01 eb4f80bd 22f7ffff 00744948  .....O.."....tIH
 403aa0 8d9530f7 ffff488d 8570f7ff ff4889d6  ..0...H..p...H..
 403ab0 4889c7e8 28e5ffff eb2e80bd 22f7ffff  H...(......."...
 403ac0 00742848 8d9530f7 ffff488d 8590f7ff  .t(H..0...H.....
 403ad0 ff4889d6 4889c7e8 04e5ffff c68523f7  .H..H.........#.
 403ae0 ffff01eb 0690eb04 90eb0190 838524f7  ..............$.
 403af0 ffff01e9 e9feffff 0fb68522 f7ffff83  ..........."....
 403b00 f00184c0 7421be93 4b4000bf a0636000  ....t!..K@...c`.
 403b10 e82be7ff ffbe4021 40004889 c7e82ee7  .+....@!@.H.....
 403b20 ffffe9f1 01000048 8d8d70f7 ffff488d  .......H..p...H.
 403b30 85d0fbff ffba0800 00004889 ce4889c7  ..........H..H..
 403b40 e89be8ff ff488d8d 90f7ffff 488d85e0  .....H......H...
 403b50 fdffffba 08000000 4889ce48 89c7e87d  ........H..H...}
 403b60 e8ffff48 8d8590f7 ffff4889 c6bfa063  ...H......H....c
 403b70 6000e869 e6ffffbe 40214000 4889c7e8  `..i....@!@.H...
 403b80 cce6ffff 488d85d0 fbffff48 89c7e83d  ....H......H...=
 403b90 e8ffff83 f00184c0 7421bea0 4b4000bf  ........t!..K@..
 403ba0 a0636000 e897e6ff ffbe4021 40004889  .c`.......@!@.H.
 403bb0 c7e89ae6 ffffe93f 01000048 8d8521f7  .......?...H..!.
 403bc0 ffff4889 c7e896e8 ffff488d 9521f7ff  ..H.......H..!..
 403bd0 ff488d85 b0f7ffff be134b40 004889c7  .H........K@.H..
 403be0 e80be7ff ff488d85 21f7ffff 4889c7e8  .....H..!...H...
 403bf0 6ce6ffff 488d8521 f7ffff48 89c7e85d  l...H..!...H...]
 403c00 e8ffff48 8d9521f7 ffff488d 85d0f7ff  ...H..!...H.....
 403c10 ffbe134b 40004889 c7e8d2e6 ffff488d  ...K@.H.......H.
 403c20 8521f7ff ff4889c7 e833e6ff ff488d95  .!...H...3...H..
 403c30 b0f7ffff 488d85d0 fbffff48 89d64889  ....H......H..H.
 403c40 c7e80ae4 ffff488d 95d0f7ff ff488d85  ......H......H..
 403c50 d0fbffff 4889d648 89c7e8f1 e3ffff48  ....H..H.......H
 403c60 8d85d0fb ffff4889 c7e802e4 ffff488d  ......H.......H.
 403c70 95d0f7ff ff488d85 10f8ffff 4889d648  .....H......H..H
 403c80 89c7e899 e4ffff48 8d95b0f7 ffff488d  .......H......H.
 403c90 85f0f7ff ff4889d6 4889c7e8 80e4ffff  .....H..H.......
 403ca0 488d9510 f8ffff48 8d8df0f7 ffff8b85  H......H........
 403cb0 1cf7ffff 4889ce89 c7e894f7 ffff488d  ....H.........H.
 403cc0 85f0f7ff ff4889c7 e893e4ff ff488d85  .....H.......H..
 403cd0 10f8ffff 4889c7e8 84e4ffff 488d85d0  ....H.......H...
 403ce0 f7ffff48 89c7e875 e4ffff48 8d85b0f7  ...H...u...H....
 403cf0 ffff4889 c7e866e4 ffff488d 85e0fdff  ..H...f...H.....
 403d00 ff4889c7 e897e3ff ff488d85 d0fbffff  .H.......H......
 403d10 4889c7e8 88e3ffff 488d8590 f7ffff48  H.......H......H
 403d20 89c7e839 e4ffff48 8d8570f7 ffff4889  ...9...H..p...H.
 403d30 c7e82ae4 ffff488d 8550f7ff ff4889c7  ..*...H..P...H..
 403d40 e81be4ff ff488d85 30f8ffff 4889c7e8  .....H..0...H...
 403d50 3ce4ffff eb1cbec4 4b4000bf a0636000  <.......K@...c`.
 403d60 e8dbe4ff ffbe4021 40004889 c7e8dee4  ......@!@.H.....
 403d70 ffff488d 8530f7ff ff4889c7 e8dfe3ff  ..H..0...H......
 403d80 ff488d85 c0f9ffff 4889c7e8 10e3ffff  .H......H.......
 403d90 90488b45 e8644833 04252800 00000f84  .H.E.dH3.%(.....
 403da0 4a010000 e9400100 004889c3 488d8521  J....@...H..H..!
 403db0 f7ffff48 89c7e8a5 e4ffffe9 d8000000  ...H............
 403dc0 4889c348 8d8521f7 ffff4889 c7e88ee4  H..H..!...H.....
 403dd0 ffffe9ad 00000048 89c3488d 8521f7ff  .......H..H..!..
 403de0 ff4889c7 e877e4ff ffeb6248 89c3488d  .H...w....bH..H.
 403df0 8521f7ff ff4889c7 e863e4ff ffeb3a48  .!...H...c....:H
 403e00 89c3488d 85f0f7ff ff4889c7 e84fe3ff  ..H......H...O..
 403e10 ffeb0348 89c3488d 8510f8ff ff4889c7  ...H..H......H..
 403e20 e83be3ff ffeb0348 89c3488d 85d0f7ff  .;.....H..H.....
 403e30 ff4889c7 e827e3ff ff488d85 b0f7ffff  .H...'...H......
 403e40 4889c7e8 18e3ffff eb034889 c3488d85  H.........H..H..
 403e50 e0fdffff 4889c7e8 44e2ffff eb034889  ....H...D.....H.
 403e60 c3488d85 d0fbffff 4889c7e8 30e2ffff  .H......H...0...
 403e70 eb034889 c3488d85 90f7ffff 4889c7e8  ..H..H......H...
 403e80 dce2ffff 488d8570 f7ffff48 89c7e8cd  ....H..p...H....
 403e90 e2ffffeb 034889c3 488d8550 f7ffff48  .....H..H..P...H
 403ea0 89c7e8b9 e2ffffeb 034889c3 488d8530  .........H..H..0
 403eb0 f8ffff48 89c7e8d5 e2ffffeb 034889c3  ...H.........H..
 403ec0 488d8530 f7ffff48 89c7e891 e2ffff48  H..0...H.......H
 403ed0 8d85c0f9 ffff4889 c7e8c2e1 ffff4889  ......H.......H.
 403ee0 d84889c7 e867e5ff ffe892e3 ffff4881  .H...g........H.
 403ef0 c4e80800 005b5dc3 554889e5 41545348  .....[].UH..ATSH
 403f00 83ec7089 7d8c4889 75806448 8b042528  ..p.}.H.u.dH..%(
 403f10 00000048 8945e831 c0837d8c 017f21be  ...H.E.1..}...!.
 403f20 e0626000 bfa06360 00e812e3 ffffbe40  .b`...c`.......@
 403f30 21400048 89c7e815 e3ffffe9 9c010000  !@.H............
 403f40 488b4580 4883c008 488b00be d54b4000  H.E.H...H....K@.
 403f50 4889c7e8 d8e3ffff 85c07562 837d8c05  H.........ub.}..
 403f60 753b488b 45804883 c0204c8b 20488b45  u;H.E.H.. L. H.E
 403f70 804883c0 18488b18 488b4580 4883c010  .H...H..H.E.H...
 403f80 488b0048 89c7e835 e4ffff4c 89e24889  H..H...5...L..H.
 403f90 de89c7e8 31eeffff e93f0100 00bee062  ....1....?.....b
 403fa0 6000bfa0 636000e8 94e2ffff be402140  `...c`.......@!@
 403fb0 004889c7 e897e2ff ffe91e01 0000488b  .H............H.
 403fc0 45804883 c008488b 00bedb4b 40004889  E.H...H....K@.H.
 403fd0 c7e85ae3 ffff85c0 0f85e200 0000837d  ..Z............}
 403fe0 8c040f85 ba000000 488d459b 4889c7e8  ........H.E.H...
 403ff0 6ce4ffff 488b4580 4883c010 488b0848  l...H.E.H...H..H
 404000 8d559b48 8d45a048 89ce4889 c7e8dee2  .U.H.E.H..H.....
 404010 ffff488d 459b4889 c7e842e2 ffff488b  ..H.E.H...B...H.
 404020 45804883 c018488b 004889c7 e88fe3ff  E.H...H..H......
 404030 ff89459c 817d9c00 0400007e 3b817d9c  ..E..}.....~;.}.
 404040 ffff0000 7f32488d 55a0488d 45c04889  .....2H.U.H.E.H.
 404050 d64889c7 e8c7e0ff ff488d55 c08b459c  .H.......H.U..E.
 404060 4889d689 c7e8eff7 ffff488d 45c04889  H.........H.E.H.
 404070 c7e8eae0 ffffeb1c bee04b40 00bfa063  ..........K@...c
 404080 6000e8b9 e1ffffbe 40214000 4889c7e8  `.......@!@.H...
 404090 bce1ffff 488d45a0 4889c7e8 c0e0ffff  ....H.E.H.......
 4040a0 eb3abee0 626000bf a0636000 e88fe1ff  .:..b`...c`.....
 4040b0 ffbe4021 40004889 c7e892e1 ffffeb1c  ..@!@.H.........
 4040c0 bee06260 00bfa063 6000e871 e1ffffbe  ..b`...c`..q....
 4040d0 40214000 4889c7e8 74e1ffff b8000000  @!@.H...t.......
 4040e0 00488b4d e8644833 0c252800 0000744c  .H.M.dH3.%(...tL
 4040f0 eb454889 c3488d45 9b4889c7 e85fe1ff  .EH..H.E.H..._..
 404100 ff4889d8 4889c7e8 44e3ffff 4889c348  .H..H...D...H..H
 404110 8d45c048 89c7e845 e0ffffeb 034889c3  .E.H...E.....H..
 404120 488d45a0 4889c7e8 34e0ffff 4889d848  H.E.H...4...H..H
 404130 89c7e819 e3ffffe8 44e1ffff 4883c470  ........D...H..p
 404140 5b415c5d c3554889 e54883ec 10897dfc  [A\].UH..H....}.
 404150 8975f883 7dfc0175 27817df8 ffff0000  .u..}..u'.}.....
 404160 751ebfb1 646000e8 44e2ffff baa86260  u...d`..D.....b`
 404170 00beb164 6000bfb0 244000e8 50e0ffff  ...d`...$@..P...
 404180 90c9c355 4889e5be ffff0000 bf010000  ...UH...........
 404190 00e8afff ffff5dc3 554889e5 4883ec20  ......].UH..H.. 
 4041a0 48897df8 488975f0 488955e8 48837de8  H.}.H.u.H.U.H.}.
 4041b0 007507b8 00000000 eb17488b 55e8488b  .u........H.U.H.
 4041c0 4df0488b 45f84889 ce4889c7 e85fdfff  M.H.E.H..H..._..
 4041d0 ffc9c355 4889e548 83ec2048 897df848  ...UH..H.. H.}.H
 4041e0 8975f048 8955e848 8b55e848 8b4df048  .u.H.U.H.U.H.M.H
 4041f0 8b45f848 89ce4889 c7e862de ffffc9c3  .E.H..H...b.....
 404200 554889e5 534883ec 1848897d e8488975  UH..SH...H.}.H.u
 404210 e0488b45 e04889c7 e873e1ff ff4889c3  .H.E.H...s...H..
 404220 488b45e0 4889c7e8 b4e0ffff ba07690f  H.E.H.........i.
 404230 c74889de 4889c7e8 97ffffff 4883c418  .H..H.......H...
 404240 5b5dc355 4889e589 7dfc8975 f88b45fc  [].UH...}..u..E.
 404250 2345f85d c3554889 e5897dfc 8975f88b  #E.].UH...}..u..
 404260 45fc0b45 f85dc355 4889e589 7dfc8b45  E..E.].UH...}..E
 404270 fcf7d05d c3554889 e54883ec 1048897d  ...].UH..H...H.}
 404280 f88975f4 488b45f8 8b008b55 f489d689  ..u.H.E....U....
 404290 c7e8bfff ffff89c2 488b45f8 8910488b  ........H.E...H.
 4042a0 45f8c9c3 554889e5 4883ec10 48897df8  E...UH..H...H.}.
 4042b0 8975f448 8b45f88b 008b55f4 89d689c7  .u.H.E....U.....
 4042c0 e87effff ff89c248 8b45f889 10488b45  .~.....H.E...H.E
 4042d0 f8c9c355 4889e589 7dfc8975 f88b45fc  ...UH...}..u..E.
 4042e0 0b45f85d c3905548 89e54883 ec204889  .E.]..UH..H.. H.
 4042f0 7de88975 e48955e0 488b45e8 8b401889  }..u..U.H.E..@..
 404300 45fc8b45 e089c7e8 5bffffff 89c2488b  E..E....[.....H.
 404310 45e84883 c01889d6 4889c7e8 84ffffff  E.H.....H.......
 404320 8b55e08b 45e489d6 89c7e814 ffffff89  .U..E...........
 404330 c2488b45 e84883c0 1889d648 89c7e832  .H.E.H.....H...2
 404340 ffffff8b 45fcc9c3 554889e5 4883ec10  ....E...UH..H...
 404350 48897df8 488b45f8 ba4a0000 00be0800  H.}.H.E..J......
 404360 00004889 c7e87cff ffff488b 45f8c9c3  ..H...|...H.E...
 404370 554889e5 4883ec10 48897df8 488975f0  UH..H...H.}.H.u.
 404380 488b55f0 488b45f8 4889d648 89c7e87d  H.U.H.E.H..H...}
 404390 e0ffff90 c9c35548 89e54883 ec104889  ......UH..H...H.
 4043a0 7df8488b 45f84889 c7e862de ffff90c9  }.H.E.H...b.....
 4043b0 c3905548 89e54883 ec104889 7df8488b  ..UH..H...H.}.H.
 4043c0 45f84889 c7e856df ffffc9c3 554889e5  E.H...V.....UH..
 4043d0 4883ec10 48897df8 488975f0 488b55f0  H...H.}.H.u.H.U.
 4043e0 488b45f8 4889d648 89c7e805 01000090  H.E.H..H........
 4043f0 c9c35548 89e54883 ec104889 7df88975  ..UH..H...H.}..u
 404400 f48955f0 488b45f8 8b55f08b 4df489ce  ..U.H.E..U..M...
 404410 4889c7e8 88010000 90c9c390 554889e5  H...........UH..
 404420 4883ec10 48897df8 488975f0 488b55f8  H...H.}.H.u.H.U.
 404430 488b4df0 488b45f8 4889ce48 89c7e881  H.M.H.E.H..H....
 404440 010000c9 c3554889 e54883ec 1048897d  .....UH..H...H.}
 404450 f8488975 f0488b55 f0488b45 f84889d6  .H.u.H.U.H.E.H..
 404460 4889c7e8 58dcffff 85c00f94 c0c9c355  H...X..........U
 404470 4889e541 54534883 ec104889 7de84889  H..ATSH...H.}.H.
 404480 75e0488b 45e84889 c7e8f2dc ffff4889  u.H.E.H.......H.
 404490 c3488b45 e04889c7 e8e3dcff ff4839c3  .H.E.H.......H9.
 4044a0 7543488b 45e84889 c7e8d2dc ffff4989  uCH.E.H.......I.
 4044b0 c4488b45 e04889c7 e823deff ff4889c3  .H.E.H...#...H..
 4044c0 488b45e8 4889c7e8 14deffff 4c89e248  H.E.H.......L..H
 4044d0 89de4889 c7e8befc ffff85c0 7507b801  ..H.........u...
 4044e0 000000eb 05b80000 00004883 c4105b41  ..........H...[A
 4044f0 5c5dc390 554889e5 4883ec20 48897de8  \]..UH..H.. H.}.
 404500 488975e0 488b45e0 4889c7e8 57020000  H.u.H.E.H...W...
 404510 4889c248 8b45e848 891048c7 45f00100  H..H.E.H..H.E...
 404520 00004881 7df06f02 00007761 488b45f0  ..H.}.o...waH.E.
 404530 488d50ff 488b45e8 488b04d0 488945f8  H.P.H.E.H...H.E.
 404540 488b45f8 48c1e81e 483145f8 488b45f8  H.E.H...H1E.H.E.
 404550 4869c065 89076c48 8945f848 8b45f048  Hi.e..lH.E.H.E.H
 404560 89c7e81a 02000048 0145f848 8b45f848  .......H.E.H.E.H
 404570 89c7e8f0 01000048 89c1488b 45e8488b  .......H..H.E.H.
 404580 55f04889 0cd04883 45f001eb 95488b45  U.H...H.E....H.E
 404590 e848c780 80130000 70020000 90c9c390  .H......p.......
 4045a0 554889e5 48897df8 8975f489 55f0488b  UH..H.}..u..U.H.
 4045b0 45f88b55 f4891048 8b45f88b 55f08950  E..U...H.E..U..P
 4045c0 04905dc3 554889e5 534881ec 88000000  ..].UH..SH......
 4045d0 48897d88 48897580 48899578 ffffff64  H.}.H.u.H..x...d
 4045e0 488b0425 28000000 488945e8 31c048c7  H..%(...H.E.1.H.
 4045f0 45a00000 0000b8ff ffffff48 8945a8b8  E..........H.E..
 404600 ffffffff 488945b0 488b8578 ffffff48  ....H.E.H..x...H
 404610 89c7e885 01000048 63d8488b 8578ffff  .......Hc.H..x..
 404620 ff4889c7 e8850100 00489848 29c34889  .H.......H.H).H.
 404630 d8488945 b8b8feff ffff4839 45b8775d  .H.E......H9E.w]
 404640 488b45b8 4883c001 488945c0 b8ffffff  H.E.H...H.E.....
 404650 ffba0000 000048f7 75c04889 45c8488b  ......H.u.H.E.H.
 404660 45c0480f af45c848 8945d048 8b458048  E.H..E.H.E.H.E.H
 404670 89c7e847 01000048 89459848 8b459848  ...G...H.E.H.E.H
 404680 3b45d072 02ebe448 8b4598ba 00000000  ;E.r...H.E......
 404690 48f775c8 48894598 e9950000 00b8ffff  H.u.H.E.........
 4046a0 ffff4839 45b8767a 48b80000 00000100  ..H9E.vzH.......
 4046b0 00004889 45d8488b 45b848c1 e82089c2  ..H.E.H.E.H.. ..
 4046c0 488d4590 be000000 004889c7 e8cffeff  H.E......H......
 4046d0 ff488d55 90488b4d 80488b45 884889ce  .H.U.H.M.H.E.H..
 4046e0 4889c7e8 dcfeffff 489848c1 e0204889  H.......H.H.. H.
 4046f0 45e0488b 45804889 c7e8c000 00004889  E.H.E.H.......H.
 404700 c2488b45 e04801d0 48894598 488b4598  .H.E.H..H.E.H.E.
 404710 483b45b8 7792488b 4598483b 45e07312  H;E.w.H.E.H;E.s.
 404720 eb86488b 45804889 c7e89000 00004889  ..H.E.H.......H.
 404730 4598488b 8578ffff ff4889c7 e86d0000  E.H..x...H...m..
 404740 0089c248 8b459801 d0488b4d e8644833  ...H.E...H.M.dH3
 404750 0c252800 00007405 e823dbff ff4881c4  .%(...t..#...H..
 404760 88000000 5b5dc355 4889e548 83ec1048  ....[].UH..H...H
 404770 897df848 8b45f848 89c7e8d2 000000c9  .}.H.E.H........
 404780 c3554889 e54883ec 1048897d f8488b45  .UH..H...H.}.H.E
 404790 f84889c7 e8d70000 00c9c390 554889e5  .H..........UH..
 4047a0 48897df8 488b45f8 8b40045d c3905548  H.}.H.E..@.]..UH
 4047b0 89e54889 7df8488b 45f88b00 5dc35548  ..H.}.H.E...].UH
 4047c0 89e54883 ec204889 7de8488b 45e8488b  ..H.. H.}.H.E.H.
 4047d0 80801300 00483d6f 02000076 0c488b45  .....H=o...v.H.E
 4047e0 e84889c7 e8cd0000 00488b45 e8488b80  .H.......H.E.H..
 4047f0 80130000 488d4801 488b55e8 48898a80  ....H.H.H.U.H...
 404800 13000048 8b55e848 8b04c248 8945f848  ...H.U.H...H.E.H
 404810 8b45f848 c1e80b89 c0483145 f8488b45  .E.H.....H1E.H.E
 404820 f848c1e0 07258056 2c9d4831 45f8488b  .H...%.V,.H1E.H.
 404830 45f848c1 e00f2500 00c6ef48 3145f848  E.H...%....H1E.H
 404840 8b45f848 c1e81248 3145f848 8b45f8c9  .E.H...H1E.H.E..
 404850 c3554889 e548897d e8488b45 e8488945  .UH..H.}.H.E.H.E
 404860 f8b8ffff ffff4821 45f8488b 45f85dc3  ......H!E.H.E.].
 404870 554889e5 48897de8 488b45e8 488945f8  UH..H.}.H.E.H.E.
 404880 488b4df8 4889c848 c1e80448 ba210dd2  H.M.H..H...H.!..
 404890 200dd220 0d48f7e2 4889d048 d1e84869   .. .H..H..H..Hi
 4048a0 c0700200 004829c1 4889c848 8945f848  .p...H).H..H.E.H
 4048b0 8b45f85d c3905548 89e54889 7db848c7  .E.]..UH..H.}.H.
 4048c0 45d80000 008048c7 45e0ffff ff7f48c7  E.....H.E.....H.
 4048d0 45c80000 00004881 7dc8e200 00000f87  E.....H.}.......
 4048e0 82000000 488b45b8 488b55c8 488b04d0  ....H.E.H.U.H...
 4048f0 48250000 00804889 c1488b45 c8488d50  H%....H..H.E.H.P
 404900 01488b45 b8488b04 d025ffff ff7f4809  .H.E.H...%....H.
 404910 c8488945 e8488b45 c8488d90 8d010000  .H.E.H.E.H......
 404920 488b45b8 488b04d0 488b55e8 48d1ea48  H.E.H...H.U.H..H
 404930 31c2488b 45e883e0 014885c0 7407b8df  1.H.E....H..t...
 404940 b00899eb 05b80000 00004889 d14831c1  ..........H..H1.
 404950 488b45b8 488b55c8 48890cd0 488345c8  H.E.H.U.H...H.E.
 404960 01e970ff ffff48c7 45d0e300 00004881  ..p...H.E.....H.
 404970 7dd06e02 00000f87 82000000 488b45b8  }.n.........H.E.
 404980 488b55d0 488b04d0 48250000 00804889  H.U.H...H%....H.
 404990 c1488b45 d0488d50 01488b45 b8488b04  .H.E.H.P.H.E.H..
 4049a0 d025ffff ff7f4809 c8488945 f0488b45  .%....H..H.E.H.E
 4049b0 d0488d90 1dffffff 488b45b8 488b04d0  .H......H.E.H...
 4049c0 488b55f0 48d1ea48 31c2488b 45f083e0  H.U.H..H1.H.E...
 4049d0 014885c0 7407b8df b00899eb 05b80000  .H..t...........
 4049e0 00004889 d14831c1 488b45b8 488b55d0  ..H..H1.H.E.H.U.
 4049f0 48890cd0 488345d0 01e970ff ffff488b  H...H.E...p...H.
 404a00 45b8488b 80781300 00482500 00008048  E.H..x...H%....H
 404a10 89c2488b 45b8488b 0025ffff ff7f4809  ..H.E.H..%....H.
 404a20 d0488945 f8488b45 b8488b80 600c0000  .H.E.H.E.H..`...
 404a30 488b55f8 48d1ea48 31c2488b 45f883e0  H.U.H..H1.H.E...
 404a40 014885c0 7407b8df b00899eb 05b80000  .H..t...........
 404a50 00004831 c2488b45 b8488990 78130000  ..H1.H.E.H..x...
 404a60 488b45b8 48c78080 13000000 00000090  H.E.H...........
 404a70 5dc3662e 0f1f8400 00000000 0f1f4000  ].f...........@.
 404a80 41574156 4189ff41 5541544c 8d254613  AWAVA..AUATL.%F.
 404a90 20005548 8d2d4e13 20005349 89f64989   .UH.-N. .SI..I.
 404aa0 d54c29e5 4883ec08 48c1fd03 e8efd4ff  .L).H...H.......
 404ab0 ff4885ed 742031db 0f1f8400 00000000  .H..t 1.........
 404ac0 4c89ea4c 89f64489 ff41ff14 dc4883c3  L..L..D..A...H..
 404ad0 014839eb 75ea4883 c4085b5d 415c415d  .H9.u.H...[]A\A]
 404ae0 415e415f c390662e 0f1f8400 00000000  A^A_..f.........
 404af0 f3c3                                 ..              
Contents of section .fini:
 404af4 4883ec08 4883c408 c3                 H...H....       
Contents of section .rodata:
 404b00 01000200 00000000 00000064 65666175  ...........defau
 404b10 6c740000 255a780a 0054776f 6a652068  lt..%Zx..Twoje h
 404b20 6173c582 6f3a2000 47656e65 726f7761  as..o: .Generowa
 404b30 6e696520 6b6c7563 7a61207a 616ac499  nie klucza zaj..
 404b40 c5826f20 0020732e 00736f63 6b657420  ..o . s..socket 
 404b50 6661696c 65640073 6574736f 636b6f70  failed.setsockop
 404b60 74006269 6e642066 61696c65 64006c69  t.bind failed.li
 404b70 7374656e 004c6973 74656e69 6e67206f  sten.Listening o
 404b80 6e20706f 72742000 61636365 70740025  n port .accept.%
 404b90 5a78005a c5826520 686173c5 826f2100  Zx.Z..e has..o!.
 404ba0 506c696b 207a206b 6c75637a 656d206e  Plik z kluczem n
 404bb0 69657763 7a797461 6e792e20 42c582c4  iewczytany. B...
 404bc0 85642100 4e6f2066 696c6573 20637265  .d!.No files cre
 404bd0 61746564 00736574 75700073 69676e00  ated.setup.sign.
 404be0 55c5bc79 6a20706f 7274c3b3 77207a20  U..yj port..w z 
 404bf0 7a616b72 65737520 31303235 2d363535  zakresu 1025-655
 404c00 33360000 00000000 00000000 80842e41  36.............A
Contents of section .eh_frame_hdr:
 404c10 011b033b 7c010000 2e000000 b0d3ffff  ...;|...........
 404c20 c8010000 c0d8ffff 98010000 b6d9ffff  ................
 404c30 e0030000 d7d9ffff 00040000 11daffff  ................
 404c40 20040000 7fdeffff 50040000 19dfffff   .......P.......
 404c50 70040000 61e1ffff 98040000 b9e1ffff  p...a...........
 404c60 b8040000 42e8ffff e8040000 49ecffff  ....B.......I...
 404c70 10050000 e8f2ffff 38050000 35f5ffff  ........8...5...
 404c80 70070000 73f5ffff 90070000 88f5ffff  p...s...........
 404c90 f0010000 c3f5ffff 10020000 f0f5ffff  ................
 404ca0 50020000 33f6ffff 78020000 45f6ffff  P...3...x...E...
 404cb0 98020000 57f6ffff b8020000 65f6ffff  ....W.......e...
 404cc0 d8020000 94f6ffff f8020000 c3f6ffff  ................
 404cd0 18030000 d6f6ffff 38030000 38f7ffff  ........8...8...
 404ce0 58030000 60f7ffff 78030000 86f7ffff  X...`...x.......
 404cf0 98030000 a2f7ffff c0030000 bcf7ffff  ................
 404d00 60050000 e2f7ffff 80050000 0cf8ffff  `...............
 404d10 a0050000 35f8ffff c0050000 5ff8ffff  ....5......._...
 404d20 e0050000 e4f8ffff 08060000 90f9ffff  ................
 404d30 28060000 b4f9ffff 48060000 57fbffff  (.......H...W...
 404d40 70060000 71fbffff 90060000 8cfbffff  p...q...........
 404d50 b0060000 9efbffff d0060000 aefbffff  ................
 404d60 f0060000 41fcffff 10070000 60fcffff  ....A.......`...
 404d70 30070000 a6fcffff 50070000 70feffff  0.......P...p...
 404d80 b0070000 e0feffff f8070000           ............    
Contents of section .eh_frame:
 404d90 14000000 00000000 017a5200 01781001  .........zR..x..
 404da0 1b0c0708 90010710 14000000 1c000000  ................
 404db0 20d7ffff 2a000000 00000000 00000000   ...*...........
 404dc0 14000000 00000000 017a5200 01781001  .........zR..x..
 404dd0 1b0c0708 90010000 24000000 1c000000  ........$.......
 404de0 e0d1ffff 00050000 000e1046 0e184a0f  ...........F..J.
 404df0 0b770880 003f1a3b 2a332422 00000000  .w...?.;*3$"....
 404e00 1c000000 44000000 90f3ffff 3b000000  ....D.......;...
 404e10 00410e10 8602430d 06760c07 08000000  .A....C..v......
 404e20 1c000000 64000000 abf3ffff 2d000000  ....d.......-...
 404e30 00410e10 8602430d 06680c07 08000000  .A....C..h......
 404e40 1c000000 00000000 017a504c 52000178  .........zPLR..x
 404e50 10070300 24400003 1b0c0708 90010000  ....$@..........
 404e60 24000000 24000000 98f3ffff 43000000  $...$.......C...
 404e70 04245440 00410e10 8602430d 06458303  .$T@.A....C..E..
 404e80 790c0708 00000000 1c000000 cc000000  y...............
 404e90 b3f3ffff 12000000 00410e10 8602430d  .........A....C.
 404ea0 064d0c07 08000000 1c000000 ec000000  .M..............
 404eb0 a5f3ffff 12000000 00410e10 8602430d  .........A....C.
 404ec0 064d0c07 08000000 1c000000 0c010000  .M..............
 404ed0 97f3ffff 0e000000 00410e10 8602430d  .........A....C.
 404ee0 06490c07 08000000 1c000000 2c010000  .I..........,...
 404ef0 85f3ffff 2f000000 00410e10 8602430d  ..../....A....C.
 404f00 066a0c07 08000000 1c000000 4c010000  .j..........L...
 404f10 94f3ffff 2f000000 00410e10 8602430d  ..../....A....C.
 404f20 066a0c07 08000000 1c000000 6c010000  .j..........l...
 404f30 a3f3ffff 12000000 00410e10 8602430d  .........A....C.
 404f40 064d0c07 08000000 1c000000 8c010000  .M..............
 404f50 96f3ffff 62000000 00410e10 8602430d  ....b....A....C.
 404f60 06025d0c 07080000 1c000000 ac010000  ..].............
 404f70 d8f3ffff 28000000 00410e10 8602430d  ....(....A....C.
 404f80 06630c07 08000000 1c000000 cc010000  .c..............
 404f90 e0f3ffff 26000000 00410e10 8602430d  ....&....A....C.
 404fa0 06610c07 08000000 24000000 6c010000  .a......$...l...
 404fb0 e6f3ffff 1b000000 04285440 00410e10  .........(T@.A..
 404fc0 8602430d 06560c07 08000000 00000000  ..C..V..........
 404fd0 1c000000 14020000 daf3ffff 1a000000  ................
 404fe0 00410e10 8602430d 06550c07 08000000  .A....C..U......
 404ff0 1c000000 34020000 ced5ffff 21000000  ....4.......!...
 405000 00410e10 8602430d 065c0c07 08000000  .A....C..\......
 405010 1c000000 54020000 cfd5ffff 3a000000  ....T.......:...
 405020 00410e10 8602430d 06750c07 08000000  .A....C..u......
 405030 2c000000 f4010000 e9d5ffff 6e040000  ,...........n...
 405040 042c5440 00410e10 8602430d 064e8e03  .,T@.A....C..N..
 405050 8d048c05 8306035b 040c0708 00000000  .......[........
 405060 1c000000 a4020000 27daffff 9a000000  ........'.......
 405070 00410e10 8602430d 0602950c 07080000  .A....C.........
 405080 24000000 44020000 a1daffff 48020000  $...D.......H...
 405090 044c5440 00410e10 8602430d 06488303  .LT@.A....C..H..
 4050a0 033b020c 07080000 1c000000 ec020000  .;..............
 4050b0 c1dcffff 58000000 00410e10 8602430d  ....X....A....C.
 4050c0 0602530c 07080000 2c000000 8c020000  ..S.....,.......
 4050d0 f9dcffff 89060000 04715440 00410e10  .........qT@.A..
 4050e0 8602430d 06508f03 8e048d05 8c068307  ..C..P..........
 4050f0 0374060c 07080000 24000000 3c030000  .t......$...<...
 405100 52e3ffff 07040000 00410e10 8602430d  R........A....C.
 405110 06508f03 8e048d05 8c068307 00000000  .P..............
 405120 24000000 e4020000 31e7ffff 9f060000  $.......1.......
 405130 04995440 00410e10 8602430d 06488303  ..T@.A....C..H..
 405140 0392060c 07080000 24000000 0c030000  ........$.......
 405150 a8edffff 4d020000 04fa5440 00410e10  ....M.....T@.A..
 405160 8602430d 06478c03 83040341 020c0708  ..C..G.....A....
 405170 1c000000 b4030000 54f2ffff 26000000  ........T...&...
 405180 00410e10 8602430d 06610c07 08000000  .A....C..a......
 405190 1c000000 d4030000 5af2ffff 29000000  ........Z...)...
 4051a0 00410e10 8602430d 06640c07 08000000  .A....C..d......
 4051b0 1c000000 f4030000 64f2ffff 29000000  ........d...)...
 4051c0 00410e10 8602430d 06640c07 08000000  .A....C..d......
 4051d0 1c000000 14040000 6df2ffff 2a000000  ........m...*...
 4051e0 00410e10 8602430d 06650c07 08000000  .A....C..e......
 4051f0 24000000 34040000 77f2ffff 84000000  $...4...w.......
 405200 00410e10 8602430d 06478c03 83040278  .A....C..G.....x
 405210 0c070800 00000000 1c000000 5c040000  ............\...
 405220 d4f2ffff ab000000 00410e10 8602430d  .........A....C.
 405230 0602a60c 07080000 1c000000 7c040000  ............|...
 405240 60f3ffff 24000000 00410e10 8602430d  `...$....A....C.
 405250 065f0c07 08000000 24000000 9c040000  ._......$.......
 405260 64f3ffff a3010000 00410e10 8602430d  d........A....C.
 405270 06488303 0396010c 07080000 00000000  .H..............
 405280 1c000000 c4040000 dff4ffff 1a000000  ................
 405290 00410e10 8602430d 06550c07 08000000  .A....C..U......
 4052a0 1c000000 e4040000 d9f4ffff 1a000000  ................
 4052b0 00410e10 8602430d 06550c07 08000000  .A....C..U......
 4052c0 1c000000 04050000 d4f4ffff 11000000  ................
 4052d0 00410e10 8602430d 064c0c07 08000000  .A....C..L......
 4052e0 1c000000 24050000 c6f4ffff 10000000  ....$...........
 4052f0 00410e10 8602430d 064b0c07 08000000  .A....C..K......
 405300 1c000000 44050000 b6f4ffff 93000000  ....D...........
 405310 00410e10 8602430d 06028e0c 07080000  .A....C.........
 405320 1c000000 64050000 29f5ffff 1f000000  ....d...).......
 405330 00410e10 8602430d 065a0c07 08000000  .A....C..Z......
 405340 1c000000 84050000 28f5ffff 45000000  ........(...E...
 405350 00410e10 8602430d 0602400c 07080000  .A....C...@.....
 405360 1c000000 a4050000 4ef5ffff bc010000  ........N.......
 405370 00410e10 8602430d 0603b701 0c070800  .A....C.........
 405380 1c000000 c4050000 bdedffff 3e000000  ............>...
 405390 00410e10 8602430d 06790c07 08000000  .A....C..y......
 4053a0 1c000000 e4050000 dbedffff 15000000  ................
 4053b0 00410e10 8602430d 06500c07 08000000  .A....C..P......
 4053c0 44000000 04060000 b8f6ffff 65000000  D...........e...
 4053d0 00420e10 8f02420e 188e0345 0e208d04  .B....B....E. ..
 4053e0 420e288c 05480e30 8606480e 3883074d  B.(..H.0..H.8..M
 4053f0 0e40720e 38410e30 410e2842 0e20420e  .@r.8A.0A.(B. B.
 405400 18420e10 420e0800 14000000 4c060000  .B..B.......L...
 405410 e0f6ffff 02000000 00000000 00000000  ................
 405420 00000000                             ....            
Contents of section .gcc_except_table:
 405424 ffff0100 ffff0100 ffff011c 4c058b08  ............L...
 405434 006505f7 07009201 32bf0800 e504ad01  .e......2.......
 405444 a80800a3 08390000 ffff0121 4705d703  .....9.....!G...
 405454 006005c3 03008d01 329c0400 b10205f4  .`......2.......
 405464 0300f102 20880400 ef034a00 00ffff01  .... .....J.....
 405474 24688a04 0000fc04 05d80c00 8b062ac4  $h............*.
 405484 0c00d006 a002b00c 00fa08d1 029c0c00  ................
 405494 f00c0500 00ffff01 5d3c0500 005a4fe4  ........]<...ZO.
 4054a4 0c00bc01 1ad00c00 f90105bc 0c00a302  ................
 4054b4 05d00a00 dc0205e7 0a00aa03 c202990c  ................
 4054c4 00850605 850c0099 0644f10b 00870705  .........D......
 4054d4 fe0a00c0 0705920b 00e80746 ce0b00c2  ...........F....
 4054e4 0805ba0b 00e00805 a60b0087 0a12e40c  ................
 4054f4 008b0d05 0000ffff 01233190 01000095  .........#1.....
 405504 0205fa03 00dc0205 a50400ed 02059404  ................
 405514 008a0312 a50400b4 038b0100 00        .............   
Contents of section .init_array:
 605dd8 a0254000 00000000 83414000 00000000  .%@......A@.....
Contents of section .fini_array:
 605de8 80254000 00000000                    .%@.....        
Contents of section .jcr:
 605df0 00000000 00000000                    ........        
Contents of section .dynamic:
 605df8 01000000 00000000 01000000 00000000  ................
 605e08 01000000 00000000 4a010000 00000000  ........J.......
 605e18 01000000 00000000 220a0000 00000000  ........".......
 605e28 01000000 00000000 3f0a0000 00000000  ........?.......
 605e38 0c000000 00000000 a01f4000 00000000  ..........@.....
 605e48 0d000000 00000000 f44a4000 00000000  .........J@.....
 605e58 19000000 00000000 d85d6000 00000000  .........]`.....
 605e68 1b000000 00000000 10000000 00000000  ................
 605e78 1a000000 00000000 e85d6000 00000000  .........]`.....
 605e88 1c000000 00000000 08000000 00000000  ................
 605e98 f5feff6f 00000000 98024000 00000000  ...o......@.....
 605ea8 05000000 00000000 500b4000 00000000  ........P.@.....
 605eb8 06000000 00000000 e0024000 00000000  ..........@.....
 605ec8 0a000000 00000000 520b0000 00000000  ........R.......
 605ed8 0b000000 00000000 18000000 00000000  ................
 605ee8 15000000 00000000 00000000 00000000  ................
 605ef8 03000000 00000000 00606000 00000000  .........``.....
 605f08 02000000 00000000 68070000 00000000  ........h.......
 605f18 14000000 00000000 07000000 00000000  ................
 605f28 17000000 00000000 38184000 00000000  ........8.@.....
 605f38 07000000 00000000 08184000 00000000  ..........@.....
 605f48 08000000 00000000 30000000 00000000  ........0.......
 605f58 09000000 00000000 18000000 00000000  ................
 605f68 feffff6f 00000000 58174000 00000000  ...o....X.@.....
 605f78 ffffff6f 00000000 03000000 00000000  ...o............
 605f88 f0ffff6f 00000000 a2164000 00000000  ...o......@.....
 605f98 00000000 00000000 00000000 00000000  ................
 605fa8 00000000 00000000 00000000 00000000  ................
 605fb8 00000000 00000000 00000000 00000000  ................
 605fc8 00000000 00000000 00000000 00000000  ................
 605fd8 00000000 00000000 00000000 00000000  ................
 605fe8 00000000 00000000 00000000 00000000  ................
Contents of section .got:
 605ff8 00000000 00000000                    ........        
Contents of section .got.plt:
 606000 f85d6000 00000000 00000000 00000000  .]`.............
 606010 00000000 00000000 d61f4000 00000000  ..........@.....
 606020 e61f4000 00000000 f61f4000 00000000  ..@.......@.....
 606030 06204000 00000000 16204000 00000000  . @...... @.....
 606040 26204000 00000000 36204000 00000000  & @.....6 @.....
 606050 46204000 00000000 56204000 00000000  F @.....V @.....
 606060 66204000 00000000 76204000 00000000  f @.....v @.....
 606070 86204000 00000000 96204000 00000000  . @...... @.....
 606080 a6204000 00000000 b6204000 00000000  . @...... @.....
 606090 c6204000 00000000 d6204000 00000000  . @...... @.....
 6060a0 e6204000 00000000 f6204000 00000000  . @...... @.....
 6060b0 06214000 00000000 16214000 00000000  .!@......!@.....
 6060c0 26214000 00000000 36214000 00000000  &!@.....6!@.....
 6060d0 46214000 00000000 56214000 00000000  F!@.....V!@.....
 6060e0 66214000 00000000 76214000 00000000  f!@.....v!@.....
 6060f0 86214000 00000000 96214000 00000000  .!@......!@.....
 606100 a6214000 00000000 b6214000 00000000  .!@......!@.....
 606110 c6214000 00000000 d6214000 00000000  .!@......!@.....
 606120 e6214000 00000000 f6214000 00000000  .!@......!@.....
 606130 06224000 00000000 16224000 00000000  ."@......"@.....
 606140 26224000 00000000 36224000 00000000  &"@.....6"@.....
 606150 46224000 00000000 56224000 00000000  F"@.....V"@.....
 606160 66224000 00000000 76224000 00000000  f"@.....v"@.....
 606170 86224000 00000000 96224000 00000000  ."@......"@.....
 606180 a6224000 00000000 b6224000 00000000  ."@......"@.....
 606190 c6224000 00000000 d6224000 00000000  ."@......"@.....
 6061a0 e6224000 00000000 f6224000 00000000  ."@......"@.....
 6061b0 06234000 00000000 16234000 00000000  .#@......#@.....
 6061c0 26234000 00000000 36234000 00000000  &#@.....6#@.....
 6061d0 46234000 00000000 56234000 00000000  F#@.....V#@.....
 6061e0 66234000 00000000 76234000 00000000  f#@.....v#@.....
 6061f0 86234000 00000000 96234000 00000000  .#@......#@.....
 606200 a6234000 00000000 b6234000 00000000  .#@......#@.....
 606210 c6234000 00000000 d6234000 00000000  .#@......#@.....
 606220 e6234000 00000000 f6234000 00000000  .#@......#@.....
 606230 06244000 00000000 16244000 00000000  .$@......$@.....
 606240 26244000 00000000 36244000 00000000  &$@.....6$@.....
 606250 46244000 00000000 56244000 00000000  F$@.....V$@.....
 606260 66244000 00000000 76244000 00000000  f$@.....v$@.....
 606270 86244000 00000000 96244000 00000000  .$@......$@.....
 606280 a6244000 00000000 b6244000 00000000  .$@......$@.....
Contents of section .data:
 6062a0 00000000 00000000 00000000 00000000  ................
 6062b0 00000000 00000000 00000000 00000000  ................
 6062c0 6c6f6766 696c652e 74787400 00000000  logfile.txt.....
 6062d0 00000000 00000000 00000000 00000000  ................
 6062e0 53706f73 c3b36220 647a6961 c582616e  Spos..b dzia..an
 6062f0 69612070 726f6772 616d753a 200a2d62  ia programu: .-b
 606300 73657276 65722073 65747570 205b726f  server setup [ro
 606310 7a6d6961 72206b6c 75637a61 5d205b70  zmiar klucza] [p
 606320 6c696b20 6b6c7563 7a612070 7279775d  lik klucza pryw]
 606330 205b706c 696b206b 6c75637a 61207075   [plik klucza pu
 606340 626c5d2c 2067647a 69652072 6f7a6d69  bl], gdzie rozmi
 606350 6172206b 6c75637a 6120746f 20323034  ar klucza to 204
 606360 382c2034 3039362c 20383139 32206c75  8, 4096, 8192 lu
 606370 62203136 33383420 0a2d6273 65727665  b 16384 .-bserve
 606380 72207369 676e205b 686173c5 826f5d20  r sign [has..o] 
 606390 5b706f72 745d00                      [port].         
Contents of section .comment:
 0000 4743433a 20285562 756e7475 20352e34  GCC: (Ubuntu 5.4
 0010 2e302d36 7562756e 7475317e 31362e30  .0-6ubuntu1~16.0
 0020 342e3529 20352e34 2e302032 30313630  4.5) 5.4.0 20160
 0030 36303900                             609.            

Disassembly of section .init:

0000000000401fa0 <_init>:
  401fa0:	48 83 ec 08          	sub    $0x8,%rsp
  401fa4:	48 8b 05 4d 40 20 00 	mov    0x20404d(%rip),%rax        # 605ff8 <_DYNAMIC+0x200>
  401fab:	48 85 c0             	test   %rax,%rax
  401fae:	74 05                	je     401fb5 <_init+0x15>
  401fb0:	e8 0b 05 00 00       	callq  4024c0 <_ZNSt8ios_base4InitD1Ev@plt+0x10>
  401fb5:	48 83 c4 08          	add    $0x8,%rsp
  401fb9:	c3                   	retq   

Disassembly of section .plt:

0000000000401fc0 <_Znam@plt-0x10>:
  401fc0:	ff 35 42 40 20 00    	pushq  0x204042(%rip)        # 606008 <_GLOBAL_OFFSET_TABLE_+0x8>
  401fc6:	ff 25 44 40 20 00    	jmpq   *0x204044(%rip)        # 606010 <_GLOBAL_OFFSET_TABLE_+0x10>
  401fcc:	0f 1f 40 00          	nopl   0x0(%rax)

0000000000401fd0 <_Znam@plt>:
  401fd0:	ff 25 42 40 20 00    	jmpq   *0x204042(%rip)        # 606018 <_GLOBAL_OFFSET_TABLE_+0x18>
  401fd6:	68 00 00 00 00       	pushq  $0x0
  401fdb:	e9 e0 ff ff ff       	jmpq   401fc0 <_init+0x20>

0000000000401fe0 <_ZNSt7__cxx1112basic_stringIcSt11char_traitsIcESaIcEEaSERKS4_@plt>:
  401fe0:	ff 25 3a 40 20 00    	jmpq   *0x20403a(%rip)        # 606020 <_GLOBAL_OFFSET_TABLE_+0x20>
  401fe6:	68 01 00 00 00       	pushq  $0x1
  401feb:	e9 d0 ff ff ff       	jmpq   401fc0 <_init+0x20>

0000000000401ff0 <_ZNSt14basic_ofstreamIcSt11char_traitsIcEE4openEPKcSt13_Ios_Openmode@plt>:
  401ff0:	ff 25 32 40 20 00    	jmpq   *0x204032(%rip)        # 606028 <_GLOBAL_OFFSET_TABLE_+0x28>
  401ff6:	68 02 00 00 00       	pushq  $0x2
  401ffb:	e9 c0 ff ff ff       	jmpq   401fc0 <_init+0x20>

0000000000402000 <htons@plt>:
  402000:	ff 25 2a 40 20 00    	jmpq   *0x20402a(%rip)        # 606030 <_GLOBAL_OFFSET_TABLE_+0x30>
  402006:	68 03 00 00 00       	pushq  $0x3
  40200b:	e9 b0 ff ff ff       	jmpq   401fc0 <_init+0x20>

0000000000402010 <__gmpz_gcd@plt>:
  402010:	ff 25 22 40 20 00    	jmpq   *0x204022(%rip)        # 606038 <_GLOBAL_OFFSET_TABLE_+0x38>
  402016:	68 04 00 00 00       	pushq  $0x4
  40201b:	e9 a0 ff ff ff       	jmpq   401fc0 <_init+0x20>

0000000000402020 <__gmpz_cmp_ui@plt>:
  402020:	ff 25 1a 40 20 00    	jmpq   *0x20401a(%rip)        # 606040 <_GLOBAL_OFFSET_TABLE_+0x40>
  402026:	68 05 00 00 00       	pushq  $0x5
  40202b:	e9 90 ff ff ff       	jmpq   401fc0 <_init+0x20>

0000000000402030 <bind@plt>:
  402030:	ff 25 12 40 20 00    	jmpq   *0x204012(%rip)        # 606048 <_GLOBAL_OFFSET_TABLE_+0x48>
  402036:	68 06 00 00 00       	pushq  $0x6
  40203b:	e9 80 ff ff ff       	jmpq   401fc0 <_init+0x20>

0000000000402040 <__gmp_randseed_ui@plt>:
  402040:	ff 25 0a 40 20 00    	jmpq   *0x20400a(%rip)        # 606050 <_GLOBAL_OFFSET_TABLE_+0x50>
  402046:	68 07 00 00 00       	pushq  $0x7
  40204b:	e9 70 ff ff ff       	jmpq   401fc0 <_init+0x20>

0000000000402050 <_ZSt7getlineIcSt11char_traitsIcESaIcEERSt13basic_istreamIT_T0_ES7_RNSt7__cxx1112basic_stringIS4_S5_T1_EE@plt>:
  402050:	ff 25 02 40 20 00    	jmpq   *0x204002(%rip)        # 606058 <_GLOBAL_OFFSET_TABLE_+0x58>
  402056:	68 08 00 00 00       	pushq  $0x8
  40205b:	e9 60 ff ff ff       	jmpq   401fc0 <_init+0x20>

0000000000402060 <_ZSt11_Hash_bytesPKvmm@plt>:
  402060:	ff 25 fa 3f 20 00    	jmpq   *0x203ffa(%rip)        # 606060 <_GLOBAL_OFFSET_TABLE_+0x60>
  402066:	68 09 00 00 00       	pushq  $0x9
  40206b:	e9 50 ff ff ff       	jmpq   401fc0 <_init+0x20>

0000000000402070 <_ZNSt14basic_ifstreamIcSt11char_traitsIcEE5closeEv@plt>:
  402070:	ff 25 f2 3f 20 00    	jmpq   *0x203ff2(%rip)        # 606068 <_GLOBAL_OFFSET_TABLE_+0x68>
  402076:	68 0a 00 00 00       	pushq  $0xa
  40207b:	e9 40 ff ff ff       	jmpq   401fc0 <_init+0x20>

0000000000402080 <_ZNSolsEm@plt>:
  402080:	ff 25 ea 3f 20 00    	jmpq   *0x203fea(%rip)        # 606070 <_GLOBAL_OFFSET_TABLE_+0x70>
  402086:	68 0b 00 00 00       	pushq  $0xb
  40208b:	e9 30 ff ff ff       	jmpq   401fc0 <_init+0x20>

0000000000402090 <socket@plt>:
  402090:	ff 25 e2 3f 20 00    	jmpq   *0x203fe2(%rip)        # 606078 <_GLOBAL_OFFSET_TABLE_+0x78>
  402096:	68 0c 00 00 00       	pushq  $0xc
  40209b:	e9 20 ff ff ff       	jmpq   401fc0 <_init+0x20>

00000000004020a0 <_ZNSt14basic_ifstreamIcSt11char_traitsIcEED1Ev@plt>:
  4020a0:	ff 25 da 3f 20 00    	jmpq   *0x203fda(%rip)        # 606080 <_GLOBAL_OFFSET_TABLE_+0x80>
  4020a6:	68 0d 00 00 00       	pushq  $0xd
  4020ab:	e9 10 ff ff ff       	jmpq   401fc0 <_init+0x20>

00000000004020b0 <__gmpz_init_set_str@plt>:
  4020b0:	ff 25 d2 3f 20 00    	jmpq   *0x203fd2(%rip)        # 606088 <_GLOBAL_OFFSET_TABLE_+0x88>
  4020b6:	68 0e 00 00 00       	pushq  $0xe
  4020bb:	e9 00 ff ff ff       	jmpq   401fc0 <_init+0x20>

00000000004020c0 <_ZNKSt7__cxx1112basic_stringIcSt11char_traitsIcESaIcEE7compareEPKc@plt>:
  4020c0:	ff 25 ca 3f 20 00    	jmpq   *0x203fca(%rip)        # 606090 <_GLOBAL_OFFSET_TABLE_+0x90>
  4020c6:	68 0f 00 00 00       	pushq  $0xf
  4020cb:	e9 f0 fe ff ff       	jmpq   401fc0 <_init+0x20>

00000000004020d0 <__gmpz_sub_ui@plt>:
  4020d0:	ff 25 c2 3f 20 00    	jmpq   *0x203fc2(%rip)        # 606098 <_GLOBAL_OFFSET_TABLE_+0x98>
  4020d6:	68 10 00 00 00       	pushq  $0x10
  4020db:	e9 e0 fe ff ff       	jmpq   401fc0 <_init+0x20>

00000000004020e0 <__gmpz_mul@plt>:
  4020e0:	ff 25 ba 3f 20 00    	jmpq   *0x203fba(%rip)        # 6060a0 <_GLOBAL_OFFSET_TABLE_+0xa0>
  4020e6:	68 11 00 00 00       	pushq  $0x11
  4020eb:	e9 d0 fe ff ff       	jmpq   401fc0 <_init+0x20>

00000000004020f0 <accept@plt>:
  4020f0:	ff 25 b2 3f 20 00    	jmpq   *0x203fb2(%rip)        # 6060a8 <_GLOBAL_OFFSET_TABLE_+0xa8>
  4020f6:	68 12 00 00 00       	pushq  $0x12
  4020fb:	e9 c0 fe ff ff       	jmpq   401fc0 <_init+0x20>

0000000000402100 <_ZNSolsEPFRSt8ios_baseS0_E@plt>:
  402100:	ff 25 aa 3f 20 00    	jmpq   *0x203faa(%rip)        # 6060b0 <_GLOBAL_OFFSET_TABLE_+0xb0>
  402106:	68 13 00 00 00       	pushq  $0x13
  40210b:	e9 b0 fe ff ff       	jmpq   401fc0 <_init+0x20>

0000000000402110 <_ZNKSt7__cxx1112basic_stringIcSt11char_traitsIcESaIcEE5c_strEv@plt>:
  402110:	ff 25 a2 3f 20 00    	jmpq   *0x203fa2(%rip)        # 6060b8 <_GLOBAL_OFFSET_TABLE_+0xb8>
  402116:	68 14 00 00 00       	pushq  $0x14
  40211b:	e9 a0 fe ff ff       	jmpq   401fc0 <_init+0x20>

0000000000402120 <_ZNSt7__cxx1112basic_stringIcSt11char_traitsIcESaIcEEC1ERKS4_@plt>:
  402120:	ff 25 9a 3f 20 00    	jmpq   *0x203f9a(%rip)        # 6060c0 <_GLOBAL_OFFSET_TABLE_+0xc0>
  402126:	68 15 00 00 00       	pushq  $0x15
  40212b:	e9 90 fe ff ff       	jmpq   401fc0 <_init+0x20>

0000000000402130 <memcmp@plt>:
  402130:	ff 25 92 3f 20 00    	jmpq   *0x203f92(%rip)        # 6060c8 <_GLOBAL_OFFSET_TABLE_+0xc8>
  402136:	68 16 00 00 00       	pushq  $0x16
  40213b:	e9 80 fe ff ff       	jmpq   401fc0 <_init+0x20>

0000000000402140 <_ZSt4endlIcSt11char_traitsIcEERSt13basic_ostreamIT_T0_ES6_@plt>:
  402140:	ff 25 8a 3f 20 00    	jmpq   *0x203f8a(%rip)        # 6060d0 <_GLOBAL_OFFSET_TABLE_+0xd0>
  402146:	68 17 00 00 00       	pushq  $0x17
  40214b:	e9 70 fe ff ff       	jmpq   401fc0 <_init+0x20>

0000000000402150 <send@plt>:
  402150:	ff 25 82 3f 20 00    	jmpq   *0x203f82(%rip)        # 6060d8 <_GLOBAL_OFFSET_TABLE_+0xd8>
  402156:	68 18 00 00 00       	pushq  $0x18
  40215b:	e9 60 fe ff ff       	jmpq   401fc0 <_init+0x20>

0000000000402160 <_ZNSt7__cxx1112basic_stringIcSt11char_traitsIcESaIcEED1Ev@plt>:
  402160:	ff 25 7a 3f 20 00    	jmpq   *0x203f7a(%rip)        # 6060e0 <_GLOBAL_OFFSET_TABLE_+0xe0>
  402166:	68 19 00 00 00       	pushq  $0x19
  40216b:	e9 50 fe ff ff       	jmpq   401fc0 <_init+0x20>

0000000000402170 <_ZNSt7__cxx1112basic_stringIcSt11char_traitsIcESaIcEEpLEc@plt>:
  402170:	ff 25 72 3f 20 00    	jmpq   *0x203f72(%rip)        # 6060e8 <_GLOBAL_OFFSET_TABLE_+0xe8>
  402176:	68 1a 00 00 00       	pushq  $0x1a
  40217b:	e9 40 fe ff ff       	jmpq   401fc0 <_init+0x20>

0000000000402180 <_ZNKSt7__cxx1112basic_stringIcSt11char_traitsIcESaIcEE4sizeEv@plt>:
  402180:	ff 25 6a 3f 20 00    	jmpq   *0x203f6a(%rip)        # 6060f0 <_GLOBAL_OFFSET_TABLE_+0xf0>
  402186:	68 1b 00 00 00       	pushq  $0x1b
  40218b:	e9 30 fe ff ff       	jmpq   401fc0 <_init+0x20>

0000000000402190 <_ZNSt7__cxx1118basic_stringstreamIcSt11char_traitsIcESaIcEED1Ev@plt>:
  402190:	ff 25 62 3f 20 00    	jmpq   *0x203f62(%rip)        # 6060f8 <_GLOBAL_OFFSET_TABLE_+0xf8>
  402196:	68 1c 00 00 00       	pushq  $0x1c
  40219b:	e9 20 fe ff ff       	jmpq   401fc0 <_init+0x20>

00000000004021a0 <_ZNSt7__cxx1118basic_stringstreamIcSt11char_traitsIcESaIcEEC1ESt13_Ios_Openmode@plt>:
  4021a0:	ff 25 5a 3f 20 00    	jmpq   *0x203f5a(%rip)        # 606100 <_GLOBAL_OFFSET_TABLE_+0x100>
  4021a6:	68 1d 00 00 00       	pushq  $0x1d
  4021ab:	e9 10 fe ff ff       	jmpq   401fc0 <_init+0x20>

00000000004021b0 <__gmp_sprintf@plt>:
  4021b0:	ff 25 52 3f 20 00    	jmpq   *0x203f52(%rip)        # 606108 <_GLOBAL_OFFSET_TABLE_+0x108>
  4021b6:	68 1e 00 00 00       	pushq  $0x1e
  4021bb:	e9 00 fe ff ff       	jmpq   401fc0 <_init+0x20>

00000000004021c0 <perror@plt>:
  4021c0:	ff 25 4a 3f 20 00    	jmpq   *0x203f4a(%rip)        # 606110 <_GLOBAL_OFFSET_TABLE_+0x110>
  4021c6:	68 1f 00 00 00       	pushq  $0x1f
  4021cb:	e9 f0 fd ff ff       	jmpq   401fc0 <_init+0x20>

00000000004021d0 <__cxa_atexit@plt>:
  4021d0:	ff 25 42 3f 20 00    	jmpq   *0x203f42(%rip)        # 606118 <_GLOBAL_OFFSET_TABLE_+0x118>
  4021d6:	68 20 00 00 00       	pushq  $0x20
  4021db:	e9 e0 fd ff ff       	jmpq   401fc0 <_init+0x20>

00000000004021e0 <_ZStlsIcSt11char_traitsIcESaIcEERSt13basic_ostreamIT_T0_ES7_RKNSt7__cxx1112basic_stringIS4_S5_T1_EE@plt>:
  4021e0:	ff 25 3a 3f 20 00    	jmpq   *0x203f3a(%rip)        # 606120 <_GLOBAL_OFFSET_TABLE_+0x120>
  4021e6:	68 21 00 00 00       	pushq  $0x21
  4021eb:	e9 d0 fd ff ff       	jmpq   401fc0 <_init+0x20>

00000000004021f0 <__gmp_randinit_default@plt>:
  4021f0:	ff 25 32 3f 20 00    	jmpq   *0x203f32(%rip)        # 606128 <_GLOBAL_OFFSET_TABLE_+0x128>
  4021f6:	68 22 00 00 00       	pushq  $0x22
  4021fb:	e9 c0 fd ff ff       	jmpq   401fc0 <_init+0x20>

0000000000402200 <time@plt>:
  402200:	ff 25 2a 3f 20 00    	jmpq   *0x203f2a(%rip)        # 606130 <_GLOBAL_OFFSET_TABLE_+0x130>
  402206:	68 23 00 00 00       	pushq  $0x23
  40220b:	e9 b0 fd ff ff       	jmpq   401fc0 <_init+0x20>

0000000000402210 <_ZNSt13random_device7_M_finiEv@plt>:
  402210:	ff 25 22 3f 20 00    	jmpq   *0x203f22(%rip)        # 606138 <_GLOBAL_OFFSET_TABLE_+0x138>
  402216:	68 24 00 00 00       	pushq  $0x24
  40221b:	e9 a0 fd ff ff       	jmpq   401fc0 <_init+0x20>

0000000000402220 <_ZdlPv@plt>:
  402220:	ff 25 1a 3f 20 00    	jmpq   *0x203f1a(%rip)        # 606140 <_GLOBAL_OFFSET_TABLE_+0x140>
  402226:	68 25 00 00 00       	pushq  $0x25
  40222b:	e9 90 fd ff ff       	jmpq   401fc0 <_init+0x20>

0000000000402230 <__gmpz_lcm@plt>:
  402230:	ff 25 12 3f 20 00    	jmpq   *0x203f12(%rip)        # 606148 <_GLOBAL_OFFSET_TABLE_+0x148>
  402236:	68 26 00 00 00       	pushq  $0x26
  40223b:	e9 80 fd ff ff       	jmpq   401fc0 <_init+0x20>

0000000000402240 <_ZStlsISt11char_traitsIcEERSt13basic_ostreamIcT_ES5_PKc@plt>:
  402240:	ff 25 0a 3f 20 00    	jmpq   *0x203f0a(%rip)        # 606150 <_GLOBAL_OFFSET_TABLE_+0x150>
  402246:	68 27 00 00 00       	pushq  $0x27
  40224b:	e9 70 fd ff ff       	jmpq   401fc0 <_init+0x20>

0000000000402250 <_ZNSolsEPFRSoS_E@plt>:
  402250:	ff 25 02 3f 20 00    	jmpq   *0x203f02(%rip)        # 606158 <_GLOBAL_OFFSET_TABLE_+0x158>
  402256:	68 28 00 00 00       	pushq  $0x28
  40225b:	e9 60 fd ff ff       	jmpq   401fc0 <_init+0x20>

0000000000402260 <_ZNSaIcED1Ev@plt>:
  402260:	ff 25 fa 3e 20 00    	jmpq   *0x203efa(%rip)        # 606160 <_GLOBAL_OFFSET_TABLE_+0x160>
  402266:	68 29 00 00 00       	pushq  $0x29
  40226b:	e9 50 fd ff ff       	jmpq   401fc0 <_init+0x20>

0000000000402270 <_ZNSt14basic_ofstreamIcSt11char_traitsIcEEC1EPKcSt13_Ios_Openmode@plt>:
  402270:	ff 25 f2 3e 20 00    	jmpq   *0x203ef2(%rip)        # 606168 <_GLOBAL_OFFSET_TABLE_+0x168>
  402276:	68 2a 00 00 00       	pushq  $0x2a
  40227b:	e9 40 fd ff ff       	jmpq   401fc0 <_init+0x20>

0000000000402280 <__stack_chk_fail@plt>:
  402280:	ff 25 ea 3e 20 00    	jmpq   *0x203eea(%rip)        # 606170 <_GLOBAL_OFFSET_TABLE_+0x170>
  402286:	68 2b 00 00 00       	pushq  $0x2b
  40228b:	e9 30 fd ff ff       	jmpq   401fc0 <_init+0x20>

0000000000402290 <listen@plt>:
  402290:	ff 25 e2 3e 20 00    	jmpq   *0x203ee2(%rip)        # 606178 <_GLOBAL_OFFSET_TABLE_+0x178>
  402296:	68 2c 00 00 00       	pushq  $0x2c
  40229b:	e9 20 fd ff ff       	jmpq   401fc0 <_init+0x20>

00000000004022a0 <__gmpz_init@plt>:
  4022a0:	ff 25 da 3e 20 00    	jmpq   *0x203eda(%rip)        # 606180 <_GLOBAL_OFFSET_TABLE_+0x180>
  4022a6:	68 2d 00 00 00       	pushq  $0x2d
  4022ab:	e9 10 fd ff ff       	jmpq   401fc0 <_init+0x20>

00000000004022b0 <exit@plt>:
  4022b0:	ff 25 d2 3e 20 00    	jmpq   *0x203ed2(%rip)        # 606188 <_GLOBAL_OFFSET_TABLE_+0x188>
  4022b6:	68 2e 00 00 00       	pushq  $0x2e
  4022bb:	e9 00 fd ff ff       	jmpq   401fc0 <_init+0x20>

00000000004022c0 <_ZNKSt9basic_iosIcSt11char_traitsIcEEcvbEv@plt>:
  4022c0:	ff 25 ca 3e 20 00    	jmpq   *0x203eca(%rip)        # 606190 <_GLOBAL_OFFSET_TABLE_+0x190>
  4022c6:	68 2f 00 00 00       	pushq  $0x2f
  4022cb:	e9 f0 fc ff ff       	jmpq   401fc0 <_init+0x20>

00000000004022d0 <_ZStrsIcSt11char_traitsIcESaIcEERSt13basic_istreamIT_T0_ES7_RNSt7__cxx1112basic_stringIS4_S5_T1_EE@plt>:
  4022d0:	ff 25 c2 3e 20 00    	jmpq   *0x203ec2(%rip)        # 606198 <_GLOBAL_OFFSET_TABLE_+0x198>
  4022d6:	68 30 00 00 00       	pushq  $0x30
  4022db:	e9 e0 fc ff ff       	jmpq   401fc0 <_init+0x20>

00000000004022e0 <_ZNKSt7__cxx1112basic_stringIcSt11char_traitsIcESaIcEE4dataEv@plt>:
  4022e0:	ff 25 ba 3e 20 00    	jmpq   *0x203eba(%rip)        # 6061a0 <_GLOBAL_OFFSET_TABLE_+0x1a0>
  4022e6:	68 31 00 00 00       	pushq  $0x31
  4022eb:	e9 d0 fc ff ff       	jmpq   401fc0 <_init+0x20>

00000000004022f0 <_ZNSt7__cxx1112basic_stringIcSt11char_traitsIcESaIcEEC1EPKcRKS3_@plt>:
  4022f0:	ff 25 b2 3e 20 00    	jmpq   *0x203eb2(%rip)        # 6061a8 <_GLOBAL_OFFSET_TABLE_+0x1a8>
  4022f6:	68 32 00 00 00       	pushq  $0x32
  4022fb:	e9 c0 fc ff ff       	jmpq   401fc0 <_init+0x20>

0000000000402300 <__gmpz_urandomm@plt>:
  402300:	ff 25 aa 3e 20 00    	jmpq   *0x203eaa(%rip)        # 6061b0 <_GLOBAL_OFFSET_TABLE_+0x1b0>
  402306:	68 33 00 00 00       	pushq  $0x33
  40230b:	e9 b0 fc ff ff       	jmpq   401fc0 <_init+0x20>

0000000000402310 <_ZNSt7__cxx1112basic_stringIcSt11char_traitsIcESaIcEEC1Ev@plt>:
  402310:	ff 25 a2 3e 20 00    	jmpq   *0x203ea2(%rip)        # 6061b8 <_GLOBAL_OFFSET_TABLE_+0x1b8>
  402316:	68 34 00 00 00       	pushq  $0x34
  40231b:	e9 a0 fc ff ff       	jmpq   401fc0 <_init+0x20>

0000000000402320 <_ZNSt13random_device9_M_getvalEv@plt>:
  402320:	ff 25 9a 3e 20 00    	jmpq   *0x203e9a(%rip)        # 6061c0 <_GLOBAL_OFFSET_TABLE_+0x1c0>
  402326:	68 35 00 00 00       	pushq  $0x35
  40232b:	e9 90 fc ff ff       	jmpq   401fc0 <_init+0x20>

0000000000402330 <strcmp@plt>:
  402330:	ff 25 92 3e 20 00    	jmpq   *0x203e92(%rip)        # 6061c8 <_GLOBAL_OFFSET_TABLE_+0x1c8>
  402336:	68 36 00 00 00       	pushq  $0x36
  40233b:	e9 80 fc ff ff       	jmpq   401fc0 <_init+0x20>

0000000000402340 <_ZNSt14basic_ofstreamIcSt11char_traitsIcEE5closeEv@plt>:
  402340:	ff 25 8a 3e 20 00    	jmpq   *0x203e8a(%rip)        # 6061d0 <_GLOBAL_OFFSET_TABLE_+0x1d0>
  402346:	68 37 00 00 00       	pushq  $0x37
  40234b:	e9 70 fc ff ff       	jmpq   401fc0 <_init+0x20>

0000000000402350 <__gmpz_nextprime@plt>:
  402350:	ff 25 82 3e 20 00    	jmpq   *0x203e82(%rip)        # 6061d8 <_GLOBAL_OFFSET_TABLE_+0x1d8>
  402356:	68 38 00 00 00       	pushq  $0x38
  40235b:	e9 60 fc ff ff       	jmpq   401fc0 <_init+0x20>

0000000000402360 <read@plt>:
  402360:	ff 25 7a 3e 20 00    	jmpq   *0x203e7a(%rip)        # 6061e0 <_GLOBAL_OFFSET_TABLE_+0x1e0>
  402366:	68 39 00 00 00       	pushq  $0x39
  40236b:	e9 50 fc ff ff       	jmpq   401fc0 <_init+0x20>

0000000000402370 <__gmpz_add_ui@plt>:
  402370:	ff 25 72 3e 20 00    	jmpq   *0x203e72(%rip)        # 6061e8 <_GLOBAL_OFFSET_TABLE_+0x1e8>
  402376:	68 3a 00 00 00       	pushq  $0x3a
  40237b:	e9 40 fc ff ff       	jmpq   401fc0 <_init+0x20>

0000000000402380 <_ZNSt14basic_ofstreamIcSt11char_traitsIcEED1Ev@plt>:
  402380:	ff 25 6a 3e 20 00    	jmpq   *0x203e6a(%rip)        # 6061f0 <_GLOBAL_OFFSET_TABLE_+0x1f0>
  402386:	68 3b 00 00 00       	pushq  $0x3b
  40238b:	e9 30 fc ff ff       	jmpq   401fc0 <_init+0x20>

0000000000402390 <_ZNKSt7__cxx1112basic_stringIcSt11char_traitsIcESaIcEE6lengthEv@plt>:
  402390:	ff 25 62 3e 20 00    	jmpq   *0x203e62(%rip)        # 6061f8 <_GLOBAL_OFFSET_TABLE_+0x1f8>
  402396:	68 3c 00 00 00       	pushq  $0x3c
  40239b:	e9 20 fc ff ff       	jmpq   401fc0 <_init+0x20>

00000000004023a0 <__gmpz_invert@plt>:
  4023a0:	ff 25 5a 3e 20 00    	jmpq   *0x203e5a(%rip)        # 606200 <_GLOBAL_OFFSET_TABLE_+0x200>
  4023a6:	68 3d 00 00 00       	pushq  $0x3d
  4023ab:	e9 10 fc ff ff       	jmpq   401fc0 <_init+0x20>

00000000004023b0 <_ZNSt8ios_base4InitC1Ev@plt>:
  4023b0:	ff 25 52 3e 20 00    	jmpq   *0x203e52(%rip)        # 606208 <_GLOBAL_OFFSET_TABLE_+0x208>
  4023b6:	68 3e 00 00 00       	pushq  $0x3e
  4023bb:	e9 00 fc ff ff       	jmpq   401fc0 <_init+0x20>

00000000004023c0 <atoi@plt>:
  4023c0:	ff 25 4a 3e 20 00    	jmpq   *0x203e4a(%rip)        # 606210 <_GLOBAL_OFFSET_TABLE_+0x210>
  4023c6:	68 3f 00 00 00       	pushq  $0x3f
  4023cb:	e9 f0 fb ff ff       	jmpq   401fc0 <_init+0x20>

00000000004023d0 <_ZNSt14basic_ifstreamIcSt11char_traitsIcEE7is_openEv@plt>:
  4023d0:	ff 25 42 3e 20 00    	jmpq   *0x203e42(%rip)        # 606218 <_GLOBAL_OFFSET_TABLE_+0x218>
  4023d6:	68 40 00 00 00       	pushq  $0x40
  4023db:	e9 e0 fb ff ff       	jmpq   401fc0 <_init+0x20>

00000000004023e0 <_ZNSt14basic_ifstreamIcSt11char_traitsIcEEC1ERKNSt7__cxx1112basic_stringIcS1_SaIcEEESt13_Ios_Openmode@plt>:
  4023e0:	ff 25 3a 3e 20 00    	jmpq   *0x203e3a(%rip)        # 606220 <_GLOBAL_OFFSET_TABLE_+0x220>
  4023e6:	68 41 00 00 00       	pushq  $0x41
  4023eb:	e9 d0 fb ff ff       	jmpq   401fc0 <_init+0x20>

00000000004023f0 <gettimeofday@plt>:
  4023f0:	ff 25 32 3e 20 00    	jmpq   *0x203e32(%rip)        # 606228 <_GLOBAL_OFFSET_TABLE_+0x228>
  4023f6:	68 42 00 00 00       	pushq  $0x42
  4023fb:	e9 c0 fb ff ff       	jmpq   401fc0 <_init+0x20>

0000000000402400 <__gxx_personality_v0@plt>:
  402400:	ff 25 2a 3e 20 00    	jmpq   *0x203e2a(%rip)        # 606230 <_GLOBAL_OFFSET_TABLE_+0x230>
  402406:	68 43 00 00 00       	pushq  $0x43
  40240b:	e9 b0 fb ff ff       	jmpq   401fc0 <_init+0x20>

0000000000402410 <_ZNSt13random_device7_M_initERKNSt7__cxx1112basic_stringIcSt11char_traitsIcESaIcEEE@plt>:
  402410:	ff 25 22 3e 20 00    	jmpq   *0x203e22(%rip)        # 606238 <_GLOBAL_OFFSET_TABLE_+0x238>
  402416:	68 44 00 00 00       	pushq  $0x44
  40241b:	e9 a0 fb ff ff       	jmpq   401fc0 <_init+0x20>

0000000000402420 <_ZNSt14basic_ofstreamIcSt11char_traitsIcEEC1Ev@plt>:
  402420:	ff 25 1a 3e 20 00    	jmpq   *0x203e1a(%rip)        # 606240 <_GLOBAL_OFFSET_TABLE_+0x240>
  402426:	68 45 00 00 00       	pushq  $0x45
  40242b:	e9 90 fb ff ff       	jmpq   401fc0 <_init+0x20>

0000000000402430 <_ZNSolsEi@plt>:
  402430:	ff 25 12 3e 20 00    	jmpq   *0x203e12(%rip)        # 606248 <_GLOBAL_OFFSET_TABLE_+0x248>
  402436:	68 46 00 00 00       	pushq  $0x46
  40243b:	e9 80 fb ff ff       	jmpq   401fc0 <_init+0x20>

0000000000402440 <__gmpz_powm@plt>:
  402440:	ff 25 0a 3e 20 00    	jmpq   *0x203e0a(%rip)        # 606250 <_GLOBAL_OFFSET_TABLE_+0x250>
  402446:	68 47 00 00 00       	pushq  $0x47
  40244b:	e9 70 fb ff ff       	jmpq   401fc0 <_init+0x20>

0000000000402450 <_Unwind_Resume@plt>:
  402450:	ff 25 02 3e 20 00    	jmpq   *0x203e02(%rip)        # 606258 <_GLOBAL_OFFSET_TABLE_+0x258>
  402456:	68 48 00 00 00       	pushq  $0x48
  40245b:	e9 60 fb ff ff       	jmpq   401fc0 <_init+0x20>

0000000000402460 <_ZNSaIcEC1Ev@plt>:
  402460:	ff 25 fa 3d 20 00    	jmpq   *0x203dfa(%rip)        # 606260 <_GLOBAL_OFFSET_TABLE_+0x260>
  402466:	68 49 00 00 00       	pushq  $0x49
  40246b:	e9 50 fb ff ff       	jmpq   401fc0 <_init+0x20>

0000000000402470 <setsockopt@plt>:
  402470:	ff 25 f2 3d 20 00    	jmpq   *0x203df2(%rip)        # 606268 <_GLOBAL_OFFSET_TABLE_+0x268>
  402476:	68 4a 00 00 00       	pushq  $0x4a
  40247b:	e9 40 fb ff ff       	jmpq   401fc0 <_init+0x20>

0000000000402480 <_ZNSt14basic_ifstreamIcSt11char_traitsIcEEC1EPKcSt13_Ios_Openmode@plt>:
  402480:	ff 25 ea 3d 20 00    	jmpq   *0x203dea(%rip)        # 606270 <_GLOBAL_OFFSET_TABLE_+0x270>
  402486:	68 4b 00 00 00       	pushq  $0x4b
  40248b:	e9 30 fb ff ff       	jmpq   401fc0 <_init+0x20>

0000000000402490 <__libc_start_main@plt>:
  402490:	ff 25 e2 3d 20 00    	jmpq   *0x203de2(%rip)        # 606278 <_GLOBAL_OFFSET_TABLE_+0x278>
  402496:	68 4c 00 00 00       	pushq  $0x4c
  40249b:	e9 20 fb ff ff       	jmpq   401fc0 <_init+0x20>

00000000004024a0 <_ZNSolsEd@plt>:
  4024a0:	ff 25 da 3d 20 00    	jmpq   *0x203dda(%rip)        # 606280 <_GLOBAL_OFFSET_TABLE_+0x280>
  4024a6:	68 4d 00 00 00       	pushq  $0x4d
  4024ab:	e9 10 fb ff ff       	jmpq   401fc0 <_init+0x20>

00000000004024b0 <_ZNSt8ios_base4InitD1Ev@plt>:
  4024b0:	ff 25 d2 3d 20 00    	jmpq   *0x203dd2(%rip)        # 606288 <_GLOBAL_OFFSET_TABLE_+0x288>
  4024b6:	68 4e 00 00 00       	pushq  $0x4e
  4024bb:	e9 00 fb ff ff       	jmpq   401fc0 <_init+0x20>

Disassembly of section .plt.got:

00000000004024c0 <.plt.got>:
  4024c0:	ff 25 32 3b 20 00    	jmpq   *0x203b32(%rip)        # 605ff8 <_DYNAMIC+0x200>
  4024c6:	66 90                	xchg   %ax,%ax

Disassembly of section .text:

00000000004024d0 <_start>:
  4024d0:	31 ed                	xor    %ebp,%ebp
  4024d2:	49 89 d1             	mov    %rdx,%r9
  4024d5:	5e                   	pop    %rsi
  4024d6:	48 89 e2             	mov    %rsp,%rdx
  4024d9:	48 83 e4 f0          	and    $0xfffffffffffffff0,%rsp
  4024dd:	50                   	push   %rax
  4024de:	54                   	push   %rsp
  4024df:	49 c7 c0 f0 4a 40 00 	mov    $0x404af0,%r8
  4024e6:	48 c7 c1 80 4a 40 00 	mov    $0x404a80,%rcx
  4024ed:	48 c7 c7 f8 3e 40 00 	mov    $0x403ef8,%rdi
  4024f4:	e8 97 ff ff ff       	callq  402490 <__libc_start_main@plt>
  4024f9:	f4                   	hlt    
  4024fa:	66 0f 1f 44 00 00    	nopw   0x0(%rax,%rax,1)

0000000000402500 <deregister_tm_clones>:
  402500:	b8 9f 63 60 00       	mov    $0x60639f,%eax
  402505:	55                   	push   %rbp
  402506:	48 2d 98 63 60 00    	sub    $0x606398,%rax
  40250c:	48 83 f8 0e          	cmp    $0xe,%rax
  402510:	48 89 e5             	mov    %rsp,%rbp
  402513:	76 1b                	jbe    402530 <deregister_tm_clones+0x30>
  402515:	b8 00 00 00 00       	mov    $0x0,%eax
  40251a:	48 85 c0             	test   %rax,%rax
  40251d:	74 11                	je     402530 <deregister_tm_clones+0x30>
  40251f:	5d                   	pop    %rbp
  402520:	bf 98 63 60 00       	mov    $0x606398,%edi
  402525:	ff e0                	jmpq   *%rax
  402527:	66 0f 1f 84 00 00 00 	nopw   0x0(%rax,%rax,1)
  40252e:	00 00 
  402530:	5d                   	pop    %rbp
  402531:	c3                   	retq   
  402532:	0f 1f 40 00          	nopl   0x0(%rax)
  402536:	66 2e 0f 1f 84 00 00 	nopw   %cs:0x0(%rax,%rax,1)
  40253d:	00 00 00 

0000000000402540 <register_tm_clones>:
  402540:	be 98 63 60 00       	mov    $0x606398,%esi
  402545:	55                   	push   %rbp
  402546:	48 81 ee 98 63 60 00 	sub    $0x606398,%rsi
  40254d:	48 c1 fe 03          	sar    $0x3,%rsi
  402551:	48 89 e5             	mov    %rsp,%rbp
  402554:	48 89 f0             	mov    %rsi,%rax
  402557:	48 c1 e8 3f          	shr    $0x3f,%rax
  40255b:	48 01 c6             	add    %rax,%rsi
  40255e:	48 d1 fe             	sar    %rsi
  402561:	74 15                	je     402578 <register_tm_clones+0x38>
  402563:	b8 00 00 00 00       	mov    $0x0,%eax
  402568:	48 85 c0             	test   %rax,%rax
  40256b:	74 0b                	je     402578 <register_tm_clones+0x38>
  40256d:	5d                   	pop    %rbp
  40256e:	bf 98 63 60 00       	mov    $0x606398,%edi
  402573:	ff e0                	jmpq   *%rax
  402575:	0f 1f 00             	nopl   (%rax)
  402578:	5d                   	pop    %rbp
  402579:	c3                   	retq   
  40257a:	66 0f 1f 44 00 00    	nopw   0x0(%rax,%rax,1)

0000000000402580 <__do_global_dtors_aux>:
  402580:	80 3d 29 3f 20 00 00 	cmpb   $0x0,0x203f29(%rip)        # 6064b0 <completed.7585>
  402587:	75 11                	jne    40259a <__do_global_dtors_aux+0x1a>
  402589:	55                   	push   %rbp
  40258a:	48 89 e5             	mov    %rsp,%rbp
  40258d:	e8 6e ff ff ff       	callq  402500 <deregister_tm_clones>
  402592:	5d                   	pop    %rbp
  402593:	c6 05 16 3f 20 00 01 	movb   $0x1,0x203f16(%rip)        # 6064b0 <completed.7585>
  40259a:	f3 c3                	repz retq 
  40259c:	0f 1f 40 00          	nopl   0x0(%rax)

00000000004025a0 <frame_dummy>:
  4025a0:	bf f0 5d 60 00       	mov    $0x605df0,%edi
  4025a5:	48 83 3f 00          	cmpq   $0x0,(%rdi)
  4025a9:	75 05                	jne    4025b0 <frame_dummy+0x10>
  4025ab:	eb 93                	jmp    402540 <register_tm_clones>
  4025ad:	0f 1f 00             	nopl   (%rax)
  4025b0:	b8 00 00 00 00       	mov    $0x0,%eax
  4025b5:	48 85 c0             	test   %rax,%rax
  4025b8:	74 f1                	je     4025ab <frame_dummy+0xb>
  4025ba:	55                   	push   %rbp
  4025bb:	48 89 e5             	mov    %rsp,%rbp
  4025be:	ff d0                	callq  *%rax
  4025c0:	5d                   	pop    %rbp
  4025c1:	e9 7a ff ff ff       	jmpq   402540 <register_tm_clones>

00000000004025c6 <_Z8halfbytec>:
  4025c6:	55                   	push   %rbp
  4025c7:	48 89 e5             	mov    %rsp,%rbp
  4025ca:	89 f8                	mov    %edi,%eax
  4025cc:	88 45 fc             	mov    %al,-0x4(%rbp)
  4025cf:	80 7d fc 09          	cmpb   $0x9,-0x4(%rbp)
  4025d3:	7f 09                	jg     4025de <_Z8halfbytec+0x18>
  4025d5:	0f b6 45 fc          	movzbl -0x4(%rbp),%eax
  4025d9:	83 c0 30             	add    $0x30,%eax
  4025dc:	eb 07                	jmp    4025e5 <_Z8halfbytec+0x1f>
  4025de:	0f b6 45 fc          	movzbl -0x4(%rbp),%eax
  4025e2:	83 c0 57             	add    $0x57,%eax
  4025e5:	5d                   	pop    %rbp
  4025e6:	c3                   	retq   

00000000004025e7 <_Z11digitnumberc>:
  4025e7:	55                   	push   %rbp
  4025e8:	48 89 e5             	mov    %rsp,%rbp
  4025eb:	89 f8                	mov    %edi,%eax
  4025ed:	88 45 ec             	mov    %al,-0x14(%rbp)
  4025f0:	c7 45 fc 00 00 00 00 	movl   $0x0,-0x4(%rbp)
  4025f7:	0f be 45 ec          	movsbl -0x14(%rbp),%eax
  4025fb:	83 e0 01             	and    $0x1,%eax
  4025fe:	85 c0                	test   %eax,%eax
  402600:	74 1a                	je     40261c <_Z11digitnumberc+0x35>
  402602:	0f be 45 ec          	movsbl -0x14(%rbp),%eax
  402606:	83 e0 01             	and    $0x1,%eax
  402609:	85 c0                	test   %eax,%eax
  40260b:	74 04                	je     402611 <_Z11digitnumberc+0x2a>
  40260d:	83 45 fc 01          	addl   $0x1,-0x4(%rbp)
  402611:	0f be 45 ec          	movsbl -0x14(%rbp),%eax
  402615:	d1 f8                	sar    %eax
  402617:	88 45 ec             	mov    %al,-0x14(%rbp)
  40261a:	eb db                	jmp    4025f7 <_Z11digitnumberc+0x10>
  40261c:	8b 45 fc             	mov    -0x4(%rbp),%eax
  40261f:	5d                   	pop    %rbp
  402620:	c3                   	retq   

0000000000402621 <_Z14generaterandomi>:
  402621:	55                   	push   %rbp
  402622:	48 89 e5             	mov    %rsp,%rbp
  402625:	41 56                	push   %r14
  402627:	41 55                	push   %r13
  402629:	41 54                	push   %r12
  40262b:	53                   	push   %rbx
  40262c:	48 81 ec a0 27 00 00 	sub    $0x27a0,%rsp
  402633:	89 bd 5c d8 ff ff    	mov    %edi,-0x27a4(%rbp)
  402639:	64 48 8b 04 25 28 00 	mov    %fs:0x28,%rax
  402640:	00 00 
  402642:	48 89 45 d8          	mov    %rax,-0x28(%rbp)
  402646:	31 c0                	xor    %eax,%eax
  402648:	48 8d 85 80 d8 ff ff 	lea    -0x2780(%rbp),%rax
  40264f:	48 89 c7             	mov    %rax,%rdi
  402652:	e8 09 fe ff ff       	callq  402460 <_ZNSaIcEC1Ev@plt>
  402657:	48 8d 95 80 d8 ff ff 	lea    -0x2780(%rbp),%rdx
  40265e:	48 8d 85 50 ec ff ff 	lea    -0x13b0(%rbp),%rax
  402665:	be 0b 4b 40 00       	mov    $0x404b0b,%esi
  40266a:	48 89 c7             	mov    %rax,%rdi
  40266d:	e8 7e fc ff ff       	callq  4022f0 <_ZNSt7__cxx1112basic_stringIcSt11char_traitsIcESaIcEEC1EPKcRKS3_@plt>
  402672:	48 8d 95 50 ec ff ff 	lea    -0x13b0(%rbp),%rdx
  402679:	48 8d 85 c0 d8 ff ff 	lea    -0x2740(%rbp),%rax
  402680:	48 89 d6             	mov    %rdx,%rsi
  402683:	48 89 c7             	mov    %rax,%rdi
  402686:	e8 e5 1c 00 00       	callq  404370 <_ZNSt13random_deviceC1ERKNSt7__cxx1112basic_stringIcSt11char_traitsIcESaIcEEE>
  40268b:	48 8d 85 50 ec ff ff 	lea    -0x13b0(%rbp),%rax
  402692:	48 89 c7             	mov    %rax,%rdi
  402695:	e8 c6 fa ff ff       	callq  402160 <_ZNSt7__cxx1112basic_stringIcSt11char_traitsIcESaIcEED1Ev@plt>
  40269a:	48 8d 85 80 d8 ff ff 	lea    -0x2780(%rbp),%rax
  4026a1:	48 89 c7             	mov    %rax,%rdi
  4026a4:	e8 b7 fb ff ff       	callq  402260 <_ZNSaIcED1Ev@plt>
  4026a9:	48 8d 85 c0 d8 ff ff 	lea    -0x2740(%rbp),%rax
  4026b0:	48 89 c7             	mov    %rax,%rdi
  4026b3:	e8 fa 1c 00 00       	callq  4043b2 <_ZNSt13random_deviceclEv>
  4026b8:	89 c2                	mov    %eax,%edx
  4026ba:	48 8d 85 50 ec ff ff 	lea    -0x13b0(%rbp),%rax
  4026c1:	48 89 d6             	mov    %rdx,%rsi
  4026c4:	48 89 c7             	mov    %rax,%rdi
  4026c7:	e8 00 1d 00 00       	callq  4043cc <_ZNSt23mersenne_twister_engineImLm32ELm624ELm397ELm31ELm2567483615ELm11ELm4294967295ELm7ELm2636928640ELm15ELm4022730752ELm18ELm1812433253EEC1Em>
  4026cc:	48 8d 85 80 d8 ff ff 	lea    -0x2780(%rbp),%rax
  4026d3:	ba ff ff ff 7f       	mov    $0x7fffffff,%edx
  4026d8:	be 00 00 00 00       	mov    $0x0,%esi
  4026dd:	48 89 c7             	mov    %rax,%rdi
  4026e0:	e8 0d 1d 00 00       	callq  4043f2 <_ZNSt24uniform_int_distributionIiEC1Eii>
  4026e5:	c7 85 70 d8 ff ff 00 	movl   $0x0,-0x2790(%rbp)
  4026ec:	00 00 00 
  4026ef:	48 8d 85 a0 d8 ff ff 	lea    -0x2760(%rbp),%rax
  4026f6:	48 89 c7             	mov    %rax,%rdi
  4026f9:	e8 12 fc ff ff       	callq  402310 <_ZNSt7__cxx1112basic_stringIcSt11char_traitsIcESaIcEEC1Ev@plt>
  4026fe:	8b 8d 70 d8 ff ff    	mov    -0x2790(%rbp),%ecx
  402704:	ba 56 55 55 55       	mov    $0x55555556,%edx
  402709:	89 c8                	mov    %ecx,%eax
  40270b:	f7 ea                	imul   %edx
  40270d:	89 c8                	mov    %ecx,%eax
  40270f:	c1 f8 1f             	sar    $0x1f,%eax
  402712:	29 c2                	sub    %eax,%edx
  402714:	89 d0                	mov    %edx,%eax
  402716:	89 c2                	mov    %eax,%edx
  402718:	01 d2                	add    %edx,%edx
  40271a:	01 c2                	add    %eax,%edx
  40271c:	89 c8                	mov    %ecx,%eax
  40271e:	29 d0                	sub    %edx,%eax
  402720:	85 c0                	test   %eax,%eax
  402722:	0f 84 91 00 00 00    	je     4027b9 <_Z14generaterandomi+0x198>
  402728:	8b 8d 70 d8 ff ff    	mov    -0x2790(%rbp),%ecx
  40272e:	ba 93 24 49 92       	mov    $0x92492493,%edx
  402733:	89 c8                	mov    %ecx,%eax
  402735:	f7 ea                	imul   %edx
  402737:	8d 04 0a             	lea    (%rdx,%rcx,1),%eax
  40273a:	c1 f8 02             	sar    $0x2,%eax
  40273d:	89 c2                	mov    %eax,%edx
  40273f:	89 c8                	mov    %ecx,%eax
  402741:	c1 f8 1f             	sar    $0x1f,%eax
  402744:	29 c2                	sub    %eax,%edx
  402746:	89 d0                	mov    %edx,%eax
  402748:	89 c2                	mov    %eax,%edx
  40274a:	c1 e2 03             	shl    $0x3,%edx
  40274d:	29 c2                	sub    %eax,%edx
  40274f:	89 c8                	mov    %ecx,%eax
  402751:	29 d0                	sub    %edx,%eax
  402753:	85 c0                	test   %eax,%eax
  402755:	74 62                	je     4027b9 <_Z14generaterandomi+0x198>
  402757:	8b 8d 70 d8 ff ff    	mov    -0x2790(%rbp),%ecx
  40275d:	ba 89 88 88 88       	mov    $0x88888889,%edx
  402762:	89 c8                	mov    %ecx,%eax
  402764:	f7 ea                	imul   %edx
  402766:	8d 04 0a             	lea    (%rdx,%rcx,1),%eax
  402769:	c1 f8 03             	sar    $0x3,%eax
  40276c:	89 c2                	mov    %eax,%edx
  40276e:	89 c8                	mov    %ecx,%eax
  402770:	c1 f8 1f             	sar    $0x1f,%eax
  402773:	29 c2                	sub    %eax,%edx
  402775:	89 d0                	mov    %edx,%eax
  402777:	89 c2                	mov    %eax,%edx
  402779:	c1 e2 04             	shl    $0x4,%edx
  40277c:	29 c2                	sub    %eax,%edx
  40277e:	89 c8                	mov    %ecx,%eax
  402780:	29 d0                	sub    %edx,%eax
  402782:	85 c0                	test   %eax,%eax
  402784:	74 33                	je     4027b9 <_Z14generaterandomi+0x198>
  402786:	8b 8d 70 d8 ff ff    	mov    -0x2790(%rbp),%ecx
  40278c:	ba 43 08 21 84       	mov    $0x84210843,%edx
  402791:	89 c8                	mov    %ecx,%eax
  402793:	f7 ea                	imul   %edx
  402795:	8d 04 0a             	lea    (%rdx,%rcx,1),%eax
  402798:	c1 f8 04             	sar    $0x4,%eax
  40279b:	89 c2                	mov    %eax,%edx
  40279d:	89 c8                	mov    %ecx,%eax
  40279f:	c1 f8 1f             	sar    $0x1f,%eax
  4027a2:	29 c2                	sub    %eax,%edx
  4027a4:	89 d0                	mov    %edx,%eax
  4027a6:	89 c2                	mov    %eax,%edx
  4027a8:	c1 e2 05             	shl    $0x5,%edx
  4027ab:	29 c2                	sub    %eax,%edx
  4027ad:	89 c8                	mov    %ecx,%eax
  4027af:	29 d0                	sub    %edx,%eax
  4027b1:	85 c0                	test   %eax,%eax
  4027b3:	0f 85 26 02 00 00    	jne    4029df <_Z14generaterandomi+0x3be>
  4027b9:	48 89 e0             	mov    %rsp,%rax
  4027bc:	48 89 c3             	mov    %rax,%rbx
  4027bf:	8b 85 5c d8 ff ff    	mov    -0x27a4(%rbp),%eax
  4027c5:	8d 50 03             	lea    0x3(%rax),%edx
  4027c8:	85 c0                	test   %eax,%eax
  4027ca:	0f 48 c2             	cmovs  %edx,%eax
  4027cd:	c1 f8 02             	sar    $0x2,%eax
  4027d0:	48 98                	cltq   
  4027d2:	48 83 e8 01          	sub    $0x1,%rax
  4027d6:	48 89 85 90 d8 ff ff 	mov    %rax,-0x2770(%rbp)
  4027dd:	48 89 c2             	mov    %rax,%rdx
  4027e0:	48 83 c2 01          	add    $0x1,%rdx
  4027e4:	49 89 d5             	mov    %rdx,%r13
  4027e7:	41 be 00 00 00 00    	mov    $0x0,%r14d
  4027ed:	48 89 c2             	mov    %rax,%rdx
  4027f0:	48 83 c2 01          	add    $0x1,%rdx
  4027f4:	48 89 95 40 d8 ff ff 	mov    %rdx,-0x27c0(%rbp)
  4027fb:	48 c7 85 48 d8 ff ff 	movq   $0x0,-0x27b8(%rbp)
  402802:	00 00 00 00 
  402806:	48 8d 50 01          	lea    0x1(%rax),%rdx
  40280a:	b8 10 00 00 00       	mov    $0x10,%eax
  40280f:	48 83 e8 01          	sub    $0x1,%rax
  402813:	48 01 d0             	add    %rdx,%rax
  402816:	be 10 00 00 00       	mov    $0x10,%esi
  40281b:	ba 00 00 00 00       	mov    $0x0,%edx
  402820:	48 f7 f6             	div    %rsi
  402823:	48 6b c0 10          	imul   $0x10,%rax,%rax
  402827:	48 29 c4             	sub    %rax,%rsp
  40282a:	48 89 e0             	mov    %rsp,%rax
  40282d:	48 83 c0 00          	add    $0x0,%rax
  402831:	48 89 85 98 d8 ff ff 	mov    %rax,-0x2768(%rbp)
  402838:	c7 85 74 d8 ff ff 00 	movl   $0x0,-0x278c(%rbp)
  40283f:	00 00 00 
  402842:	c7 85 78 d8 ff ff 00 	movl   $0x0,-0x2788(%rbp)
  402849:	00 00 00 
  40284c:	8b 85 5c d8 ff ff    	mov    -0x27a4(%rbp),%eax
  402852:	8d 50 03             	lea    0x3(%rax),%edx
  402855:	85 c0                	test   %eax,%eax
  402857:	0f 48 c2             	cmovs  %edx,%eax
  40285a:	c1 f8 02             	sar    $0x2,%eax
  40285d:	3b 85 78 d8 ff ff    	cmp    -0x2788(%rbp),%eax
  402863:	7e 64                	jle    4028c9 <_Z14generaterandomi+0x2a8>
  402865:	8b 85 78 d8 ff ff    	mov    -0x2788(%rbp),%eax
  40286b:	83 e0 03             	and    $0x3,%eax
  40286e:	85 c0                	test   %eax,%eax
  402870:	75 1f                	jne    402891 <_Z14generaterandomi+0x270>
  402872:	48 8d 95 50 ec ff ff 	lea    -0x13b0(%rbp),%rdx
  402879:	48 8d 85 80 d8 ff ff 	lea    -0x2780(%rbp),%rax
  402880:	48 89 d6             	mov    %rdx,%rsi
  402883:	48 89 c7             	mov    %rax,%rdi
  402886:	e8 91 1b 00 00       	callq  40441c <_ZNSt24uniform_int_distributionIiEclISt23mersenne_twister_engineImLm32ELm624ELm397ELm31ELm2567483615ELm11ELm4294967295ELm7ELm2636928640ELm15ELm4022730752ELm18ELm1812433253EEEEiRT_>
  40288b:	89 85 74 d8 ff ff    	mov    %eax,-0x278c(%rbp)
  402891:	8b 85 74 d8 ff ff    	mov    -0x278c(%rbp),%eax
  402897:	83 e0 0f             	and    $0xf,%eax
  40289a:	88 85 6f d8 ff ff    	mov    %al,-0x2791(%rbp)
  4028a0:	c1 bd 74 d8 ff ff 08 	sarl   $0x8,-0x278c(%rbp)
  4028a7:	48 8b 95 98 d8 ff ff 	mov    -0x2768(%rbp),%rdx
  4028ae:	8b 85 78 d8 ff ff    	mov    -0x2788(%rbp),%eax
  4028b4:	48 98                	cltq   
  4028b6:	0f b6 8d 6f d8 ff ff 	movzbl -0x2791(%rbp),%ecx
  4028bd:	88 0c 02             	mov    %cl,(%rdx,%rax,1)
  4028c0:	83 85 78 d8 ff ff 01 	addl   $0x1,-0x2788(%rbp)
  4028c7:	eb 83                	jmp    40284c <_Z14generaterandomi+0x22b>
  4028c9:	48 8b 85 98 d8 ff ff 	mov    -0x2768(%rbp),%rax
  4028d0:	0f b6 00             	movzbl (%rax),%eax
  4028d3:	83 c8 08             	or     $0x8,%eax
  4028d6:	89 c2                	mov    %eax,%edx
  4028d8:	48 8b 85 98 d8 ff ff 	mov    -0x2768(%rbp),%rax
  4028df:	88 10                	mov    %dl,(%rax)
  4028e1:	8b 85 5c d8 ff ff    	mov    -0x27a4(%rbp),%eax
  4028e7:	8d 50 03             	lea    0x3(%rax),%edx
  4028ea:	85 c0                	test   %eax,%eax
  4028ec:	0f 48 c2             	cmovs  %edx,%eax
  4028ef:	c1 f8 02             	sar    $0x2,%eax
  4028f2:	8d 48 ff             	lea    -0x1(%rax),%ecx
  4028f5:	83 e8 01             	sub    $0x1,%eax
  4028f8:	48 8b 95 98 d8 ff ff 	mov    -0x2768(%rbp),%rdx
  4028ff:	48 98                	cltq   
  402901:	0f b6 04 02          	movzbl (%rdx,%rax,1),%eax
  402905:	83 c8 01             	or     $0x1,%eax
  402908:	89 c6                	mov    %eax,%esi
  40290a:	48 8b 95 98 d8 ff ff 	mov    -0x2768(%rbp),%rdx
  402911:	48 63 c1             	movslq %ecx,%rax
  402914:	40 88 34 02          	mov    %sil,(%rdx,%rax,1)
  402918:	8b 85 5c d8 ff ff    	mov    -0x27a4(%rbp),%eax
  40291e:	8d 50 03             	lea    0x3(%rax),%edx
  402921:	85 c0                	test   %eax,%eax
  402923:	0f 48 c2             	cmovs  %edx,%eax
  402926:	c1 f8 02             	sar    $0x2,%eax
  402929:	48 98                	cltq   
  40292b:	48 89 c7             	mov    %rax,%rdi
  40292e:	e8 9d f6 ff ff       	callq  401fd0 <_Znam@plt>
  402933:	48 89 85 88 d8 ff ff 	mov    %rax,-0x2778(%rbp)
  40293a:	c7 85 7c d8 ff ff 00 	movl   $0x0,-0x2784(%rbp)
  402941:	00 00 00 
  402944:	8b 85 5c d8 ff ff    	mov    -0x27a4(%rbp),%eax
  40294a:	8d 50 03             	lea    0x3(%rax),%edx
  40294d:	85 c0                	test   %eax,%eax
  40294f:	0f 48 c2             	cmovs  %edx,%eax
  402952:	c1 f8 02             	sar    $0x2,%eax
  402955:	3b 85 7c d8 ff ff    	cmp    -0x2784(%rbp),%eax
  40295b:	7e 7a                	jle    4029d7 <_Z14generaterandomi+0x3b6>
  40295d:	8b 85 7c d8 ff ff    	mov    -0x2784(%rbp),%eax
  402963:	48 63 d0             	movslq %eax,%rdx
  402966:	48 8b 85 88 d8 ff ff 	mov    -0x2778(%rbp),%rax
  40296d:	48 01 d0             	add    %rdx,%rax
  402970:	c6 00 00             	movb   $0x0,(%rax)
  402973:	48 8b 95 98 d8 ff ff 	mov    -0x2768(%rbp),%rdx
  40297a:	8b 85 7c d8 ff ff    	mov    -0x2784(%rbp),%eax
  402980:	48 98                	cltq   
  402982:	0f b6 04 02          	movzbl (%rdx,%rax,1),%eax
  402986:	0f be c0             	movsbl %al,%eax
  402989:	89 c7                	mov    %eax,%edi
  40298b:	e8 57 fc ff ff       	callq  4025e7 <_Z11digitnumberc>
  402990:	01 85 70 d8 ff ff    	add    %eax,-0x2790(%rbp)
  402996:	8b 85 7c d8 ff ff    	mov    -0x2784(%rbp),%eax
  40299c:	48 63 d0             	movslq %eax,%rdx
  40299f:	48 8b 85 88 d8 ff ff 	mov    -0x2778(%rbp),%rax
  4029a6:	4c 8d 24 02          	lea    (%rdx,%rax,1),%r12
  4029aa:	48 8b 95 98 d8 ff ff 	mov    -0x2768(%rbp),%rdx
  4029b1:	8b 85 7c d8 ff ff    	mov    -0x2784(%rbp),%eax
  4029b7:	48 98                	cltq   
  4029b9:	0f b6 04 02          	movzbl (%rdx,%rax,1),%eax
  4029bd:	0f be c0             	movsbl %al,%eax
  4029c0:	89 c7                	mov    %eax,%edi
  4029c2:	e8 ff fb ff ff       	callq  4025c6 <_Z8halfbytec>
  4029c7:	41 88 04 24          	mov    %al,(%r12)
  4029cb:	83 85 7c d8 ff ff 01 	addl   $0x1,-0x2784(%rbp)
  4029d2:	e9 6d ff ff ff       	jmpq   402944 <_Z14generaterandomi+0x323>
  4029d7:	48 89 dc             	mov    %rbx,%rsp
  4029da:	e9 1f fd ff ff       	jmpq   4026fe <_Z14generaterandomi+0xdd>
  4029df:	48 8b 9d 88 d8 ff ff 	mov    -0x2778(%rbp),%rbx
  4029e6:	48 8d 85 a0 d8 ff ff 	lea    -0x2760(%rbp),%rax
  4029ed:	48 89 c7             	mov    %rax,%rdi
  4029f0:	e8 6b f7 ff ff       	callq  402160 <_ZNSt7__cxx1112basic_stringIcSt11char_traitsIcESaIcEED1Ev@plt>
  4029f5:	48 8d 85 c0 d8 ff ff 	lea    -0x2740(%rbp),%rax
  4029fc:	48 89 c7             	mov    %rax,%rdi
  4029ff:	e8 92 19 00 00       	callq  404396 <_ZNSt13random_deviceD1Ev>
  402a04:	48 89 d8             	mov    %rbx,%rax
  402a07:	48 8b 75 d8          	mov    -0x28(%rbp),%rsi
  402a0b:	64 48 33 34 25 28 00 	xor    %fs:0x28,%rsi
  402a12:	00 00 
  402a14:	74 6c                	je     402a82 <_Z14generaterandomi+0x461>
  402a16:	eb 65                	jmp    402a7d <_Z14generaterandomi+0x45c>
  402a18:	48 89 c3             	mov    %rax,%rbx
  402a1b:	48 8d 85 50 ec ff ff 	lea    -0x13b0(%rbp),%rax
  402a22:	48 89 c7             	mov    %rax,%rdi
  402a25:	e8 36 f7 ff ff       	callq  402160 <_ZNSt7__cxx1112basic_stringIcSt11char_traitsIcESaIcEED1Ev@plt>
  402a2a:	eb 03                	jmp    402a2f <_Z14generaterandomi+0x40e>
  402a2c:	48 89 c3             	mov    %rax,%rbx
  402a2f:	48 8d 85 80 d8 ff ff 	lea    -0x2780(%rbp),%rax
  402a36:	48 89 c7             	mov    %rax,%rdi
  402a39:	e8 22 f8 ff ff       	callq  402260 <_ZNSaIcED1Ev@plt>
  402a3e:	48 89 d8             	mov    %rbx,%rax
  402a41:	48 89 c7             	mov    %rax,%rdi
  402a44:	e8 07 fa ff ff       	callq  402450 <_Unwind_Resume@plt>
  402a49:	48 89 dc             	mov    %rbx,%rsp
  402a4c:	48 89 c3             	mov    %rax,%rbx
  402a4f:	48 8d 85 a0 d8 ff ff 	lea    -0x2760(%rbp),%rax
  402a56:	48 89 c7             	mov    %rax,%rdi
  402a59:	e8 02 f7 ff ff       	callq  402160 <_ZNSt7__cxx1112basic_stringIcSt11char_traitsIcESaIcEED1Ev@plt>
  402a5e:	eb 03                	jmp    402a63 <_Z14generaterandomi+0x442>
  402a60:	48 89 c3             	mov    %rax,%rbx
  402a63:	48 8d 85 c0 d8 ff ff 	lea    -0x2740(%rbp),%rax
  402a6a:	48 89 c7             	mov    %rax,%rdi
  402a6d:	e8 24 19 00 00       	callq  404396 <_ZNSt13random_deviceD1Ev>
  402a72:	48 89 d8             	mov    %rbx,%rax
  402a75:	48 89 c7             	mov    %rax,%rdi
  402a78:	e8 d3 f9 ff ff       	callq  402450 <_Unwind_Resume@plt>
  402a7d:	e8 fe f7 ff ff       	callq  402280 <__stack_chk_fail@plt>
  402a82:	48 8d 65 e0          	lea    -0x20(%rbp),%rsp
  402a86:	5b                   	pop    %rbx
  402a87:	41 5c                	pop    %r12
  402a89:	41 5d                	pop    %r13
  402a8b:	41 5e                	pop    %r14
  402a8d:	5d                   	pop    %rbp
  402a8e:	c3                   	retq   

0000000000402a8f <_Z5primeP12__mpz_structi>:
  402a8f:	55                   	push   %rbp
  402a90:	48 89 e5             	mov    %rsp,%rbp
  402a93:	48 83 ec 40          	sub    $0x40,%rsp
  402a97:	48 89 7d c8          	mov    %rdi,-0x38(%rbp)
  402a9b:	89 75 c4             	mov    %esi,-0x3c(%rbp)
  402a9e:	64 48 8b 04 25 28 00 	mov    %fs:0x28,%rax
  402aa5:	00 00 
  402aa7:	48 89 45 f8          	mov    %rax,-0x8(%rbp)
  402aab:	31 c0                	xor    %eax,%eax
  402aad:	c6 45 d7 00          	movb   $0x0,-0x29(%rbp)
  402ab1:	48 8d 45 e0          	lea    -0x20(%rbp),%rax
  402ab5:	48 89 c7             	mov    %rax,%rdi
  402ab8:	e8 e3 f7 ff ff       	callq  4022a0 <__gmpz_init@plt>
  402abd:	8b 45 c4             	mov    -0x3c(%rbp),%eax
  402ac0:	89 c7                	mov    %eax,%edi
  402ac2:	e8 5a fb ff ff       	callq  402621 <_Z14generaterandomi>
  402ac7:	48 89 45 d8          	mov    %rax,-0x28(%rbp)
  402acb:	48 8b 4d d8          	mov    -0x28(%rbp),%rcx
  402acf:	48 8d 45 e0          	lea    -0x20(%rbp),%rax
  402ad3:	ba 10 00 00 00       	mov    $0x10,%edx
  402ad8:	48 89 ce             	mov    %rcx,%rsi
  402adb:	48 89 c7             	mov    %rax,%rdi
  402ade:	e8 cd f5 ff ff       	callq  4020b0 <__gmpz_init_set_str@plt>
  402ae3:	48 8b 45 d8          	mov    -0x28(%rbp),%rax
  402ae7:	48 89 c7             	mov    %rax,%rdi
  402aea:	e8 31 f7 ff ff       	callq  402220 <_ZdlPv@plt>
  402aef:	8b 45 e4             	mov    -0x1c(%rbp),%eax
  402af2:	85 c0                	test   %eax,%eax
  402af4:	78 09                	js     402aff <_Z5primeP12__mpz_structi+0x70>
  402af6:	8b 45 e4             	mov    -0x1c(%rbp),%eax
  402af9:	85 c0                	test   %eax,%eax
  402afb:	7f 02                	jg     402aff <_Z5primeP12__mpz_structi+0x70>
  402afd:	eb be                	jmp    402abd <_Z5primeP12__mpz_structi+0x2e>
  402aff:	48 8d 55 e0          	lea    -0x20(%rbp),%rdx
  402b03:	48 8b 45 c8          	mov    -0x38(%rbp),%rax
  402b07:	48 89 d6             	mov    %rdx,%rsi
  402b0a:	48 89 c7             	mov    %rax,%rdi
  402b0d:	e8 3e f8 ff ff       	callq  402350 <__gmpz_nextprime@plt>
  402b12:	90                   	nop
  402b13:	48 8b 45 f8          	mov    -0x8(%rbp),%rax
  402b17:	64 48 33 04 25 28 00 	xor    %fs:0x28,%rax
  402b1e:	00 00 
  402b20:	74 05                	je     402b27 <_Z5primeP12__mpz_structi+0x98>
  402b22:	e8 59 f7 ff ff       	callq  402280 <__stack_chk_fail@plt>
  402b27:	c9                   	leaveq 
  402b28:	c3                   	retq   

0000000000402b29 <_Z6passwdB5cxx11v>:
  402b29:	55                   	push   %rbp
  402b2a:	48 89 e5             	mov    %rsp,%rbp
  402b2d:	53                   	push   %rbx
  402b2e:	48 81 ec 88 27 00 00 	sub    $0x2788,%rsp
  402b35:	48 89 bd 78 d8 ff ff 	mov    %rdi,-0x2788(%rbp)
  402b3c:	64 48 8b 04 25 28 00 	mov    %fs:0x28,%rax
  402b43:	00 00 
  402b45:	48 89 45 e8          	mov    %rax,-0x18(%rbp)
  402b49:	31 c0                	xor    %eax,%eax
  402b4b:	48 8d 85 90 d8 ff ff 	lea    -0x2770(%rbp),%rax
  402b52:	48 89 c7             	mov    %rax,%rdi
  402b55:	e8 06 f9 ff ff       	callq  402460 <_ZNSaIcEC1Ev@plt>
  402b5a:	48 8d 95 90 d8 ff ff 	lea    -0x2770(%rbp),%rdx
  402b61:	48 8d 85 30 ec ff ff 	lea    -0x13d0(%rbp),%rax
  402b68:	be 0b 4b 40 00       	mov    $0x404b0b,%esi
  402b6d:	48 89 c7             	mov    %rax,%rdi
  402b70:	e8 7b f7 ff ff       	callq  4022f0 <_ZNSt7__cxx1112basic_stringIcSt11char_traitsIcESaIcEEC1EPKcRKS3_@plt>
  402b75:	48 8d 95 30 ec ff ff 	lea    -0x13d0(%rbp),%rdx
  402b7c:	48 8d 85 a0 d8 ff ff 	lea    -0x2760(%rbp),%rax
  402b83:	48 89 d6             	mov    %rdx,%rsi
  402b86:	48 89 c7             	mov    %rax,%rdi
  402b89:	e8 e2 17 00 00       	callq  404370 <_ZNSt13random_deviceC1ERKNSt7__cxx1112basic_stringIcSt11char_traitsIcESaIcEEE>
  402b8e:	48 8d 85 30 ec ff ff 	lea    -0x13d0(%rbp),%rax
  402b95:	48 89 c7             	mov    %rax,%rdi
  402b98:	e8 c3 f5 ff ff       	callq  402160 <_ZNSt7__cxx1112basic_stringIcSt11char_traitsIcESaIcEED1Ev@plt>
  402b9d:	48 8d 85 90 d8 ff ff 	lea    -0x2770(%rbp),%rax
  402ba4:	48 89 c7             	mov    %rax,%rdi
  402ba7:	e8 b4 f6 ff ff       	callq  402260 <_ZNSaIcED1Ev@plt>
  402bac:	48 8d 85 a0 d8 ff ff 	lea    -0x2760(%rbp),%rax
  402bb3:	48 89 c7             	mov    %rax,%rdi
  402bb6:	e8 f7 17 00 00       	callq  4043b2 <_ZNSt13random_deviceclEv>
  402bbb:	89 c2                	mov    %eax,%edx
  402bbd:	48 8d 85 30 ec ff ff 	lea    -0x13d0(%rbp),%rax
  402bc4:	48 89 d6             	mov    %rdx,%rsi
  402bc7:	48 89 c7             	mov    %rax,%rdi
  402bca:	e8 fd 17 00 00       	callq  4043cc <_ZNSt23mersenne_twister_engineImLm32ELm624ELm397ELm31ELm2567483615ELm11ELm4294967295ELm7ELm2636928640ELm15ELm4022730752ELm18ELm1812433253EEC1Em>
  402bcf:	48 8d 85 90 d8 ff ff 	lea    -0x2770(%rbp),%rax
  402bd6:	ba 23 00 00 00       	mov    $0x23,%edx
  402bdb:	be 00 00 00 00       	mov    $0x0,%esi
  402be0:	48 89 c7             	mov    %rax,%rdi
  402be3:	e8 0a 18 00 00       	callq  4043f2 <_ZNSt24uniform_int_distributionIiEC1Eii>
  402be8:	48 b8 30 31 32 33 34 	movabs $0x3736353433323130,%rax
  402bef:	35 36 37 
  402bf2:	48 89 45 c0          	mov    %rax,-0x40(%rbp)
  402bf6:	48 b8 38 39 61 62 63 	movabs $0x6665646362613938,%rax
  402bfd:	64 65 66 
  402c00:	48 89 45 c8          	mov    %rax,-0x38(%rbp)
  402c04:	48 b8 67 68 69 6a 6b 	movabs $0x6e6d6c6b6a696867,%rax
  402c0b:	6c 6d 6e 
  402c0e:	48 89 45 d0          	mov    %rax,-0x30(%rbp)
  402c12:	48 b8 6f 70 71 72 73 	movabs $0x767574737271706f,%rax
  402c19:	74 75 76 
  402c1c:	48 89 45 d8          	mov    %rax,-0x28(%rbp)
  402c20:	c7 45 e0 77 78 79 7a 	movl   $0x7a797877,-0x20(%rbp)
  402c27:	c6 45 e4 00          	movb   $0x0,-0x1c(%rbp)
  402c2b:	c7 85 8c d8 ff ff 08 	movl   $0x8,-0x2774(%rbp)
  402c32:	00 00 00 
  402c35:	48 8d 85 87 d8 ff ff 	lea    -0x2779(%rbp),%rax
  402c3c:	48 89 c7             	mov    %rax,%rdi
  402c3f:	e8 1c f8 ff ff       	callq  402460 <_ZNSaIcEC1Ev@plt>
  402c44:	48 8d 95 87 d8 ff ff 	lea    -0x2779(%rbp),%rdx
  402c4b:	48 8b 85 78 d8 ff ff 	mov    -0x2788(%rbp),%rax
  402c52:	be 13 4b 40 00       	mov    $0x404b13,%esi
  402c57:	48 89 c7             	mov    %rax,%rdi
  402c5a:	e8 91 f6 ff ff       	callq  4022f0 <_ZNSt7__cxx1112basic_stringIcSt11char_traitsIcESaIcEEC1EPKcRKS3_@plt>
  402c5f:	48 8d 85 87 d8 ff ff 	lea    -0x2779(%rbp),%rax
  402c66:	48 89 c7             	mov    %rax,%rdi
  402c69:	e8 f2 f5 ff ff       	callq  402260 <_ZNSaIcED1Ev@plt>
  402c6e:	c7 85 88 d8 ff ff 00 	movl   $0x0,-0x2778(%rbp)
  402c75:	00 00 00 
  402c78:	8b 85 88 d8 ff ff    	mov    -0x2778(%rbp),%eax
  402c7e:	3b 85 8c d8 ff ff    	cmp    -0x2774(%rbp),%eax
  402c84:	7d 3d                	jge    402cc3 <_Z6passwdB5cxx11v+0x19a>
  402c86:	48 8d 95 30 ec ff ff 	lea    -0x13d0(%rbp),%rdx
  402c8d:	48 8d 85 90 d8 ff ff 	lea    -0x2770(%rbp),%rax
  402c94:	48 89 d6             	mov    %rdx,%rsi
  402c97:	48 89 c7             	mov    %rax,%rdi
  402c9a:	e8 7d 17 00 00       	callq  40441c <_ZNSt24uniform_int_distributionIiEclISt23mersenne_twister_engineImLm32ELm624ELm397ELm31ELm2567483615ELm11ELm4294967295ELm7ELm2636928640ELm15ELm4022730752ELm18ELm1812433253EEEEiRT_>
  402c9f:	48 98                	cltq   
  402ca1:	0f b6 44 05 c0       	movzbl -0x40(%rbp,%rax,1),%eax
  402ca6:	0f be d0             	movsbl %al,%edx
  402ca9:	48 8b 85 78 d8 ff ff 	mov    -0x2788(%rbp),%rax
  402cb0:	89 d6                	mov    %edx,%esi
  402cb2:	48 89 c7             	mov    %rax,%rdi
  402cb5:	e8 b6 f4 ff ff       	callq  402170 <_ZNSt7__cxx1112basic_stringIcSt11char_traitsIcESaIcEEpLEc@plt>
  402cba:	83 85 88 d8 ff ff 01 	addl   $0x1,-0x2778(%rbp)
  402cc1:	eb b5                	jmp    402c78 <_Z6passwdB5cxx11v+0x14f>
  402cc3:	90                   	nop
  402cc4:	48 8d 85 a0 d8 ff ff 	lea    -0x2760(%rbp),%rax
  402ccb:	48 89 c7             	mov    %rax,%rdi
  402cce:	e8 c3 16 00 00       	callq  404396 <_ZNSt13random_deviceD1Ev>
  402cd3:	90                   	nop
  402cd4:	48 8b 85 78 d8 ff ff 	mov    -0x2788(%rbp),%rax
  402cdb:	48 8b 4d e8          	mov    -0x18(%rbp),%rcx
  402cdf:	64 48 33 0c 25 28 00 	xor    %fs:0x28,%rcx
  402ce6:	00 00 
  402ce8:	74 7d                	je     402d67 <_Z6passwdB5cxx11v+0x23e>
  402cea:	eb 76                	jmp    402d62 <_Z6passwdB5cxx11v+0x239>
  402cec:	48 89 c3             	mov    %rax,%rbx
  402cef:	48 8d 85 30 ec ff ff 	lea    -0x13d0(%rbp),%rax
  402cf6:	48 89 c7             	mov    %rax,%rdi
  402cf9:	e8 62 f4 ff ff       	callq  402160 <_ZNSt7__cxx1112basic_stringIcSt11char_traitsIcESaIcEED1Ev@plt>
  402cfe:	eb 03                	jmp    402d03 <_Z6passwdB5cxx11v+0x1da>
  402d00:	48 89 c3             	mov    %rax,%rbx
  402d03:	48 8d 85 90 d8 ff ff 	lea    -0x2770(%rbp),%rax
  402d0a:	48 89 c7             	mov    %rax,%rdi
  402d0d:	e8 4e f5 ff ff       	callq  402260 <_ZNSaIcED1Ev@plt>
  402d12:	48 89 d8             	mov    %rbx,%rax
  402d15:	48 89 c7             	mov    %rax,%rdi
  402d18:	e8 33 f7 ff ff       	callq  402450 <_Unwind_Resume@plt>
  402d1d:	48 89 c3             	mov    %rax,%rbx
  402d20:	48 8d 85 87 d8 ff ff 	lea    -0x2779(%rbp),%rax
  402d27:	48 89 c7             	mov    %rax,%rdi
  402d2a:	e8 31 f5 ff ff       	callq  402260 <_ZNSaIcED1Ev@plt>
  402d2f:	eb 17                	jmp    402d48 <_Z6passwdB5cxx11v+0x21f>
  402d31:	48 89 c3             	mov    %rax,%rbx
  402d34:	48 8b 85 78 d8 ff ff 	mov    -0x2788(%rbp),%rax
  402d3b:	48 89 c7             	mov    %rax,%rdi
  402d3e:	e8 1d f4 ff ff       	callq  402160 <_ZNSt7__cxx1112basic_stringIcSt11char_traitsIcESaIcEED1Ev@plt>
  402d43:	eb 03                	jmp    402d48 <_Z6passwdB5cxx11v+0x21f>
  402d45:	48 89 c3             	mov    %rax,%rbx
  402d48:	48 8d 85 a0 d8 ff ff 	lea    -0x2760(%rbp),%rax
  402d4f:	48 89 c7             	mov    %rax,%rdi
  402d52:	e8 3f 16 00 00       	callq  404396 <_ZNSt13random_deviceD1Ev>
  402d57:	48 89 d8             	mov    %rbx,%rax
  402d5a:	48 89 c7             	mov    %rax,%rdi
  402d5d:	e8 ee f6 ff ff       	callq  402450 <_Unwind_Resume@plt>
  402d62:	e8 19 f5 ff ff       	callq  402280 <__stack_chk_fail@plt>
  402d67:	48 81 c4 88 27 00 00 	add    $0x2788,%rsp
  402d6e:	5b                   	pop    %rbx
  402d6f:	5d                   	pop    %rbp
  402d70:	c3                   	retq   

0000000000402d71 <_Z9timestampv>:
  402d71:	55                   	push   %rbp
  402d72:	48 89 e5             	mov    %rsp,%rbp
  402d75:	48 83 ec 30          	sub    $0x30,%rsp
  402d79:	64 48 8b 04 25 28 00 	mov    %fs:0x28,%rax
  402d80:	00 00 
  402d82:	48 89 45 f8          	mov    %rax,-0x8(%rbp)
  402d86:	31 c0                	xor    %eax,%eax
  402d88:	48 8d 45 e0          	lea    -0x20(%rbp),%rax
  402d8c:	be 00 00 00 00       	mov    $0x0,%esi
  402d91:	48 89 c7             	mov    %rax,%rdi
  402d94:	e8 57 f6 ff ff       	callq  4023f0 <gettimeofday@plt>
  402d99:	48 8b 45 e0          	mov    -0x20(%rbp),%rax
  402d9d:	48 69 d0 40 42 0f 00 	imul   $0xf4240,%rax,%rdx
  402da4:	48 8b 45 e8          	mov    -0x18(%rbp),%rax
  402da8:	48 01 d0             	add    %rdx,%rax
  402dab:	48 89 45 d8          	mov    %rax,-0x28(%rbp)
  402daf:	48 8b 45 d8          	mov    -0x28(%rbp),%rax
  402db3:	48 8b 4d f8          	mov    -0x8(%rbp),%rcx
  402db7:	64 48 33 0c 25 28 00 	xor    %fs:0x28,%rcx
  402dbe:	00 00 
  402dc0:	74 05                	je     402dc7 <_Z9timestampv+0x56>
  402dc2:	e8 b9 f4 ff ff       	callq  402280 <__stack_chk_fail@plt>
  402dc7:	c9                   	leaveq 
  402dc8:	c3                   	retq   

0000000000402dc9 <_Z5setupiPcS_>:
  402dc9:	55                   	push   %rbp
  402dca:	48 89 e5             	mov    %rsp,%rbp
  402dcd:	41 57                	push   %r15
  402dcf:	41 56                	push   %r14
  402dd1:	41 55                	push   %r13
  402dd3:	41 54                	push   %r12
  402dd5:	53                   	push   %rbx
  402dd6:	48 81 ec 28 07 00 00 	sub    $0x728,%rsp
  402ddd:	89 bd cc f8 ff ff    	mov    %edi,-0x734(%rbp)
  402de3:	48 89 b5 c0 f8 ff ff 	mov    %rsi,-0x740(%rbp)
  402dea:	48 89 95 b8 f8 ff ff 	mov    %rdx,-0x748(%rbp)
  402df1:	64 48 8b 04 25 28 00 	mov    %fs:0x28,%rax
  402df8:	00 00 
  402dfa:	48 89 45 c8          	mov    %rax,-0x38(%rbp)
  402dfe:	31 c0                	xor    %eax,%eax
  402e00:	48 89 e0             	mov    %rsp,%rax
  402e03:	48 89 c3             	mov    %rax,%rbx
  402e06:	e8 66 ff ff ff       	callq  402d71 <_Z9timestampv>
  402e0b:	48 89 85 e0 f8 ff ff 	mov    %rax,-0x720(%rbp)
  402e12:	8b 85 cc f8 ff ff    	mov    -0x734(%rbp),%eax
  402e18:	89 c2                	mov    %eax,%edx
  402e1a:	c1 ea 1f             	shr    $0x1f,%edx
  402e1d:	01 d0                	add    %edx,%eax
  402e1f:	d1 f8                	sar    %eax
  402e21:	89 85 dc f8 ff ff    	mov    %eax,-0x724(%rbp)
  402e27:	48 8d 85 00 f9 ff ff 	lea    -0x700(%rbp),%rax
  402e2e:	48 89 c7             	mov    %rax,%rdi
  402e31:	e8 6a f4 ff ff       	callq  4022a0 <__gmpz_init@plt>
  402e36:	48 8d 85 10 f9 ff ff 	lea    -0x6f0(%rbp),%rax
  402e3d:	48 89 c7             	mov    %rax,%rdi
  402e40:	e8 5b f4 ff ff       	callq  4022a0 <__gmpz_init@plt>
  402e45:	48 8d 85 20 f9 ff ff 	lea    -0x6e0(%rbp),%rax
  402e4c:	48 89 c7             	mov    %rax,%rdi
  402e4f:	e8 4c f4 ff ff       	callq  4022a0 <__gmpz_init@plt>
  402e54:	48 8d 85 30 f9 ff ff 	lea    -0x6d0(%rbp),%rax
  402e5b:	48 89 c7             	mov    %rax,%rdi
  402e5e:	e8 3d f4 ff ff       	callq  4022a0 <__gmpz_init@plt>
  402e63:	48 8d 85 40 f9 ff ff 	lea    -0x6c0(%rbp),%rax
  402e6a:	48 89 c7             	mov    %rax,%rdi
  402e6d:	e8 2e f4 ff ff       	callq  4022a0 <__gmpz_init@plt>
  402e72:	48 8d 85 50 f9 ff ff 	lea    -0x6b0(%rbp),%rax
  402e79:	48 89 c7             	mov    %rax,%rdi
  402e7c:	e8 1f f4 ff ff       	callq  4022a0 <__gmpz_init@plt>
  402e81:	48 8d 85 60 f9 ff ff 	lea    -0x6a0(%rbp),%rax
  402e88:	48 89 c7             	mov    %rax,%rdi
  402e8b:	e8 10 f4 ff ff       	callq  4022a0 <__gmpz_init@plt>
  402e90:	48 8d 85 70 f9 ff ff 	lea    -0x690(%rbp),%rax
  402e97:	48 89 c7             	mov    %rax,%rdi
  402e9a:	e8 01 f4 ff ff       	callq  4022a0 <__gmpz_init@plt>
  402e9f:	8b 95 dc f8 ff ff    	mov    -0x724(%rbp),%edx
  402ea5:	48 8d 85 00 f9 ff ff 	lea    -0x700(%rbp),%rax
  402eac:	89 d6                	mov    %edx,%esi
  402eae:	48 89 c7             	mov    %rax,%rdi
  402eb1:	e8 d9 fb ff ff       	callq  402a8f <_Z5primeP12__mpz_structi>
  402eb6:	8b 95 dc f8 ff ff    	mov    -0x724(%rbp),%edx
  402ebc:	48 8d 85 10 f9 ff ff 	lea    -0x6f0(%rbp),%rax
  402ec3:	89 d6                	mov    %edx,%esi
  402ec5:	48 89 c7             	mov    %rax,%rdi
  402ec8:	e8 c2 fb ff ff       	callq  402a8f <_Z5primeP12__mpz_structi>
  402ecd:	48 8d 95 10 f9 ff ff 	lea    -0x6f0(%rbp),%rdx
  402ed4:	48 8d 8d 00 f9 ff ff 	lea    -0x700(%rbp),%rcx
  402edb:	48 8d 85 20 f9 ff ff 	lea    -0x6e0(%rbp),%rax
  402ee2:	48 89 ce             	mov    %rcx,%rsi
  402ee5:	48 89 c7             	mov    %rax,%rdi
  402ee8:	e8 f3 f1 ff ff       	callq  4020e0 <__gmpz_mul@plt>
  402eed:	48 8d 8d 00 f9 ff ff 	lea    -0x700(%rbp),%rcx
  402ef4:	48 8d 85 00 f9 ff ff 	lea    -0x700(%rbp),%rax
  402efb:	ba 01 00 00 00       	mov    $0x1,%edx
  402f00:	48 89 ce             	mov    %rcx,%rsi
  402f03:	48 89 c7             	mov    %rax,%rdi
  402f06:	e8 c5 f1 ff ff       	callq  4020d0 <__gmpz_sub_ui@plt>
  402f0b:	48 8d 8d 10 f9 ff ff 	lea    -0x6f0(%rbp),%rcx
  402f12:	48 8d 85 10 f9 ff ff 	lea    -0x6f0(%rbp),%rax
  402f19:	ba 01 00 00 00       	mov    $0x1,%edx
  402f1e:	48 89 ce             	mov    %rcx,%rsi
  402f21:	48 89 c7             	mov    %rax,%rdi
  402f24:	e8 a7 f1 ff ff       	callq  4020d0 <__gmpz_sub_ui@plt>
  402f29:	48 8d 95 10 f9 ff ff 	lea    -0x6f0(%rbp),%rdx
  402f30:	48 8d 8d 00 f9 ff ff 	lea    -0x700(%rbp),%rcx
  402f37:	48 8d 85 30 f9 ff ff 	lea    -0x6d0(%rbp),%rax
  402f3e:	48 89 ce             	mov    %rcx,%rsi
  402f41:	48 89 c7             	mov    %rax,%rdi
  402f44:	e8 e7 f2 ff ff       	callq  402230 <__gmpz_lcm@plt>
  402f49:	48 8d 8d 30 f9 ff ff 	lea    -0x6d0(%rbp),%rcx
  402f50:	48 8d 85 60 f9 ff ff 	lea    -0x6a0(%rbp),%rax
  402f57:	ba 04 00 00 00       	mov    $0x4,%edx
  402f5c:	48 89 ce             	mov    %rcx,%rsi
  402f5f:	48 89 c7             	mov    %rax,%rdi
  402f62:	e8 69 f1 ff ff       	callq  4020d0 <__gmpz_sub_ui@plt>
  402f67:	48 8d 85 80 f9 ff ff 	lea    -0x680(%rbp),%rax
  402f6e:	48 89 c7             	mov    %rax,%rdi
  402f71:	e8 7a f2 ff ff       	callq  4021f0 <__gmp_randinit_default@plt>
  402f76:	bf 00 00 00 00       	mov    $0x0,%edi
  402f7b:	e8 80 f2 ff ff       	callq  402200 <time@plt>
  402f80:	89 c2                	mov    %eax,%edx
  402f82:	48 8d 85 80 f9 ff ff 	lea    -0x680(%rbp),%rax
  402f89:	48 89 d6             	mov    %rdx,%rsi
  402f8c:	48 89 c7             	mov    %rax,%rdi
  402f8f:	e8 ac f0 ff ff       	callq  402040 <__gmp_randseed_ui@plt>
  402f94:	48 8d 95 60 f9 ff ff 	lea    -0x6a0(%rbp),%rdx
  402f9b:	48 8d 8d 80 f9 ff ff 	lea    -0x680(%rbp),%rcx
  402fa2:	48 8d 85 40 f9 ff ff 	lea    -0x6c0(%rbp),%rax
  402fa9:	48 89 ce             	mov    %rcx,%rsi
  402fac:	48 89 c7             	mov    %rax,%rdi
  402faf:	e8 4c f3 ff ff       	callq  402300 <__gmpz_urandomm@plt>
  402fb4:	48 8d 8d 40 f9 ff ff 	lea    -0x6c0(%rbp),%rcx
  402fbb:	48 8d 85 40 f9 ff ff 	lea    -0x6c0(%rbp),%rax
  402fc2:	ba 03 00 00 00       	mov    $0x3,%edx
  402fc7:	48 89 ce             	mov    %rcx,%rsi
  402fca:	48 89 c7             	mov    %rax,%rdi
  402fcd:	e8 9e f3 ff ff       	callq  402370 <__gmpz_add_ui@plt>
  402fd2:	48 8d 95 40 f9 ff ff 	lea    -0x6c0(%rbp),%rdx
  402fd9:	48 8d 8d 30 f9 ff ff 	lea    -0x6d0(%rbp),%rcx
  402fe0:	48 8d 85 70 f9 ff ff 	lea    -0x690(%rbp),%rax
  402fe7:	48 89 ce             	mov    %rcx,%rsi
  402fea:	48 89 c7             	mov    %rax,%rdi
  402fed:	e8 1e f0 ff ff       	callq  402010 <__gmpz_gcd@plt>
  402ff2:	48 8d 85 70 f9 ff ff 	lea    -0x690(%rbp),%rax
  402ff9:	be 01 00 00 00       	mov    $0x1,%esi
  402ffe:	48 89 c7             	mov    %rax,%rdi
  403001:	e8 1a f0 ff ff       	callq  402020 <__gmpz_cmp_ui@plt>
  403006:	85 c0                	test   %eax,%eax
  403008:	74 02                	je     40300c <_Z5setupiPcS_+0x243>
  40300a:	eb 88                	jmp    402f94 <_Z5setupiPcS_+0x1cb>
  40300c:	48 8d 95 30 f9 ff ff 	lea    -0x6d0(%rbp),%rdx
  403013:	48 8d 8d 40 f9 ff ff 	lea    -0x6c0(%rbp),%rcx
  40301a:	48 8d 85 50 f9 ff ff 	lea    -0x6b0(%rbp),%rax
  403021:	48 89 ce             	mov    %rcx,%rsi
  403024:	48 89 c7             	mov    %rax,%rdi
  403027:	e8 74 f3 ff ff       	callq  4023a0 <__gmpz_invert@plt>
  40302c:	48 8d 85 c0 f9 ff ff 	lea    -0x640(%rbp),%rax
  403033:	48 89 c7             	mov    %rax,%rdi
  403036:	e8 e5 f3 ff ff       	callq  402420 <_ZNSt14basic_ofstreamIcSt11char_traitsIcEEC1Ev@plt>
  40303b:	48 8d 85 c0 fb ff ff 	lea    -0x440(%rbp),%rax
  403042:	48 89 c7             	mov    %rax,%rdi
  403045:	e8 d6 f3 ff ff       	callq  402420 <_ZNSt14basic_ofstreamIcSt11char_traitsIcEEC1Ev@plt>
  40304a:	8b 85 dc f8 ff ff    	mov    -0x724(%rbp),%eax
  403050:	48 98                	cltq   
  403052:	48 83 e8 01          	sub    $0x1,%rax
  403056:	48 89 85 e8 f8 ff ff 	mov    %rax,-0x718(%rbp)
  40305d:	48 89 c2             	mov    %rax,%rdx
  403060:	48 83 c2 01          	add    $0x1,%rdx
  403064:	49 89 d6             	mov    %rdx,%r14
  403067:	41 bf 00 00 00 00    	mov    $0x0,%r15d
  40306d:	48 89 c2             	mov    %rax,%rdx
  403070:	48 83 c2 01          	add    $0x1,%rdx
  403074:	49 89 d4             	mov    %rdx,%r12
  403077:	41 bd 00 00 00 00    	mov    $0x0,%r13d
  40307d:	48 8d 50 01          	lea    0x1(%rax),%rdx
  403081:	b8 10 00 00 00       	mov    $0x10,%eax
  403086:	48 83 e8 01          	sub    $0x1,%rax
  40308a:	48 01 d0             	add    %rdx,%rax
  40308d:	b9 10 00 00 00       	mov    $0x10,%ecx
  403092:	ba 00 00 00 00       	mov    $0x0,%edx
  403097:	48 f7 f1             	div    %rcx
  40309a:	48 6b c0 10          	imul   $0x10,%rax,%rax
  40309e:	48 29 c4             	sub    %rax,%rsp
  4030a1:	48 89 e0             	mov    %rsp,%rax
  4030a4:	48 83 c0 00          	add    $0x0,%rax
  4030a8:	48 89 85 f0 f8 ff ff 	mov    %rax,-0x710(%rbp)
  4030af:	be 20 00 00 00       	mov    $0x20,%esi
  4030b4:	bf 10 00 00 00       	mov    $0x10,%edi
  4030b9:	e8 15 12 00 00       	callq  4042d3 <_ZStorSt13_Ios_OpenmodeS_>
  4030be:	89 c2                	mov    %eax,%edx
  4030c0:	48 8b 8d b8 f8 ff ff 	mov    -0x748(%rbp),%rcx
  4030c7:	48 8d 85 c0 f9 ff ff 	lea    -0x640(%rbp),%rax
  4030ce:	48 89 ce             	mov    %rcx,%rsi
  4030d1:	48 89 c7             	mov    %rax,%rdi
  4030d4:	e8 17 ef ff ff       	callq  401ff0 <_ZNSt14basic_ofstreamIcSt11char_traitsIcEE4openEPKcSt13_Ios_Openmode@plt>
  4030d9:	be 10 00 00 00       	mov    $0x10,%esi
  4030de:	bf 01 00 00 00       	mov    $0x1,%edi
  4030e3:	e8 eb 11 00 00       	callq  4042d3 <_ZStorSt13_Ios_OpenmodeS_>
  4030e8:	89 c2                	mov    %eax,%edx
  4030ea:	48 8d 85 c0 fd ff ff 	lea    -0x240(%rbp),%rax
  4030f1:	be c0 62 60 00       	mov    $0x6062c0,%esi
  4030f6:	48 89 c7             	mov    %rax,%rdi
  4030f9:	e8 72 f1 ff ff       	callq  402270 <_ZNSt14basic_ofstreamIcSt11char_traitsIcEEC1EPKcSt13_Ios_Openmode@plt>
  4030fe:	48 8b 85 f0 f8 ff ff 	mov    -0x710(%rbp),%rax
  403105:	48 8d 95 40 f9 ff ff 	lea    -0x6c0(%rbp),%rdx
  40310c:	be 14 4b 40 00       	mov    $0x404b14,%esi
  403111:	48 89 c7             	mov    %rax,%rdi
  403114:	b8 00 00 00 00       	mov    $0x0,%eax
  403119:	e8 92 f0 ff ff       	callq  4021b0 <__gmp_sprintf@plt>
  40311e:	48 8b 95 f0 f8 ff ff 	mov    -0x710(%rbp),%rdx
  403125:	48 8d 85 c0 f9 ff ff 	lea    -0x640(%rbp),%rax
  40312c:	48 89 d6             	mov    %rdx,%rsi
  40312f:	48 89 c7             	mov    %rax,%rdi
  403132:	e8 09 f1 ff ff       	callq  402240 <_ZStlsISt11char_traitsIcEERSt13basic_ostreamIcT_ES5_PKc@plt>
  403137:	48 8b 85 f0 f8 ff ff 	mov    -0x710(%rbp),%rax
  40313e:	48 8d 95 20 f9 ff ff 	lea    -0x6e0(%rbp),%rdx
  403145:	be 14 4b 40 00       	mov    $0x404b14,%esi
  40314a:	48 89 c7             	mov    %rax,%rdi
  40314d:	b8 00 00 00 00       	mov    $0x0,%eax
  403152:	e8 59 f0 ff ff       	callq  4021b0 <__gmp_sprintf@plt>
  403157:	48 8b 95 f0 f8 ff ff 	mov    -0x710(%rbp),%rdx
  40315e:	48 8d 85 c0 f9 ff ff 	lea    -0x640(%rbp),%rax
  403165:	48 89 d6             	mov    %rdx,%rsi
  403168:	48 89 c7             	mov    %rax,%rdi
  40316b:	e8 d0 f0 ff ff       	callq  402240 <_ZStlsISt11char_traitsIcEERSt13basic_ostreamIcT_ES5_PKc@plt>
  403170:	48 8d 85 c0 f9 ff ff 	lea    -0x640(%rbp),%rax
  403177:	48 89 c7             	mov    %rax,%rdi
  40317a:	e8 c1 f1 ff ff       	callq  402340 <_ZNSt14basic_ofstreamIcSt11char_traitsIcEE5closeEv@plt>
  40317f:	be 20 00 00 00       	mov    $0x20,%esi
  403184:	bf 10 00 00 00       	mov    $0x10,%edi
  403189:	e8 45 11 00 00       	callq  4042d3 <_ZStorSt13_Ios_OpenmodeS_>
  40318e:	89 c2                	mov    %eax,%edx
  403190:	48 8b 8d c0 f8 ff ff 	mov    -0x740(%rbp),%rcx
  403197:	48 8d 85 c0 fb ff ff 	lea    -0x440(%rbp),%rax
  40319e:	48 89 ce             	mov    %rcx,%rsi
  4031a1:	48 89 c7             	mov    %rax,%rdi
  4031a4:	e8 47 ee ff ff       	callq  401ff0 <_ZNSt14basic_ofstreamIcSt11char_traitsIcEE4openEPKcSt13_Ios_Openmode@plt>
  4031a9:	48 8b 85 f0 f8 ff ff 	mov    -0x710(%rbp),%rax
  4031b0:	48 8d 95 50 f9 ff ff 	lea    -0x6b0(%rbp),%rdx
  4031b7:	be 14 4b 40 00       	mov    $0x404b14,%esi
  4031bc:	48 89 c7             	mov    %rax,%rdi
  4031bf:	b8 00 00 00 00       	mov    $0x0,%eax
  4031c4:	e8 e7 ef ff ff       	callq  4021b0 <__gmp_sprintf@plt>
  4031c9:	48 8b 95 f0 f8 ff ff 	mov    -0x710(%rbp),%rdx
  4031d0:	48 8d 85 c0 fb ff ff 	lea    -0x440(%rbp),%rax
  4031d7:	48 89 d6             	mov    %rdx,%rsi
  4031da:	48 89 c7             	mov    %rax,%rdi
  4031dd:	e8 5e f0 ff ff       	callq  402240 <_ZStlsISt11char_traitsIcEERSt13basic_ostreamIcT_ES5_PKc@plt>
  4031e2:	48 8b 85 f0 f8 ff ff 	mov    -0x710(%rbp),%rax
  4031e9:	48 8d 95 20 f9 ff ff 	lea    -0x6e0(%rbp),%rdx
  4031f0:	be 14 4b 40 00       	mov    $0x404b14,%esi
  4031f5:	48 89 c7             	mov    %rax,%rdi
  4031f8:	b8 00 00 00 00       	mov    $0x0,%eax
  4031fd:	e8 ae ef ff ff       	callq  4021b0 <__gmp_sprintf@plt>
  403202:	48 8b 95 f0 f8 ff ff 	mov    -0x710(%rbp),%rdx
  403209:	48 8d 85 c0 fb ff ff 	lea    -0x440(%rbp),%rax
  403210:	48 89 d6             	mov    %rdx,%rsi
  403213:	48 89 c7             	mov    %rax,%rdi
  403216:	e8 25 f0 ff ff       	callq  402240 <_ZStlsISt11char_traitsIcEERSt13basic_ostreamIcT_ES5_PKc@plt>
  40321b:	48 8d 85 c0 fb ff ff 	lea    -0x440(%rbp),%rax
  403222:	48 89 c7             	mov    %rax,%rdi
  403225:	e8 16 f1 ff ff       	callq  402340 <_ZNSt14basic_ofstreamIcSt11char_traitsIcEE5closeEv@plt>
  40322a:	48 8d 85 a0 f9 ff ff 	lea    -0x660(%rbp),%rax
  403231:	48 89 c7             	mov    %rax,%rdi
  403234:	e8 f0 f8 ff ff       	callq  402b29 <_Z6passwdB5cxx11v>
  403239:	be 19 4b 40 00       	mov    $0x404b19,%esi
  40323e:	bf a0 63 60 00       	mov    $0x6063a0,%edi
  403243:	e8 f8 ef ff ff       	callq  402240 <_ZStlsISt11char_traitsIcEERSt13basic_ostreamIcT_ES5_PKc@plt>
  403248:	48 89 c2             	mov    %rax,%rdx
  40324b:	48 8d 85 a0 f9 ff ff 	lea    -0x660(%rbp),%rax
  403252:	48 89 c6             	mov    %rax,%rsi
  403255:	48 89 d7             	mov    %rdx,%rdi
  403258:	e8 83 ef ff ff       	callq  4021e0 <_ZStlsIcSt11char_traitsIcESaIcEERSt13basic_ostreamIT_T0_ES7_RKNSt7__cxx1112basic_stringIS4_S5_T1_EE@plt>
  40325d:	be 40 21 40 00       	mov    $0x402140,%esi
  403262:	48 89 c7             	mov    %rax,%rdi
  403265:	e8 e6 ef ff ff       	callq  402250 <_ZNSolsEPFRSoS_E@plt>
  40326a:	48 8d 95 a0 f9 ff ff 	lea    -0x660(%rbp),%rdx
  403271:	48 8d 85 db f8 ff ff 	lea    -0x725(%rbp),%rax
  403278:	48 89 d6             	mov    %rdx,%rsi
  40327b:	48 89 c7             	mov    %rax,%rdi
  40327e:	e8 7d 0f 00 00       	callq  404200 <_ZNKSt4hashINSt7__cxx1112basic_stringIcSt11char_traitsIcESaIcEEEEclERKS5_>
  403283:	48 89 85 f8 f8 ff ff 	mov    %rax,-0x708(%rbp)
  40328a:	48 8d 85 c0 fd ff ff 	lea    -0x240(%rbp),%rax
  403291:	be 48 43 40 00       	mov    $0x404348,%esi
  403296:	48 89 c7             	mov    %rax,%rdi
  403299:	e8 62 ee ff ff       	callq  402100 <_ZNSolsEPFRSt8ios_baseS0_E@plt>
  40329e:	48 89 c2             	mov    %rax,%rdx
  4032a1:	48 8b 85 f8 f8 ff ff 	mov    -0x708(%rbp),%rax
  4032a8:	48 89 c6             	mov    %rax,%rsi
  4032ab:	48 89 d7             	mov    %rdx,%rdi
  4032ae:	e8 cd ed ff ff       	callq  402080 <_ZNSolsEm@plt>
  4032b3:	48 8d 85 c0 fd ff ff 	lea    -0x240(%rbp),%rax
  4032ba:	be 40 21 40 00       	mov    $0x402140,%esi
  4032bf:	48 89 c7             	mov    %rax,%rdi
  4032c2:	e8 89 ef ff ff       	callq  402250 <_ZNSolsEPFRSoS_E@plt>
  4032c7:	48 89 c2             	mov    %rax,%rdx
  4032ca:	48 8b 85 c0 f8 ff ff 	mov    -0x740(%rbp),%rax
  4032d1:	48 89 c6             	mov    %rax,%rsi
  4032d4:	48 89 d7             	mov    %rdx,%rdi
  4032d7:	e8 64 ef ff ff       	callq  402240 <_ZStlsISt11char_traitsIcEERSt13basic_ostreamIcT_ES5_PKc@plt>
  4032dc:	be 40 21 40 00       	mov    $0x402140,%esi
  4032e1:	48 89 c7             	mov    %rax,%rdi
  4032e4:	e8 67 ef ff ff       	callq  402250 <_ZNSolsEPFRSoS_E@plt>
  4032e9:	48 89 c2             	mov    %rax,%rdx
  4032ec:	48 8b 85 b8 f8 ff ff 	mov    -0x748(%rbp),%rax
  4032f3:	48 89 c6             	mov    %rax,%rsi
  4032f6:	48 89 d7             	mov    %rdx,%rdi
  4032f9:	e8 42 ef ff ff       	callq  402240 <_ZStlsISt11char_traitsIcEERSt13basic_ostreamIcT_ES5_PKc@plt>
  4032fe:	be 40 21 40 00       	mov    $0x402140,%esi
  403303:	48 89 c7             	mov    %rax,%rdi
  403306:	e8 45 ef ff ff       	callq  402250 <_ZNSolsEPFRSoS_E@plt>
  40330b:	be 40 21 40 00       	mov    $0x402140,%esi
  403310:	48 89 c7             	mov    %rax,%rdi
  403313:	e8 38 ef ff ff       	callq  402250 <_ZNSolsEPFRSoS_E@plt>
  403318:	48 8d 85 c0 fd ff ff 	lea    -0x240(%rbp),%rax
  40331f:	48 89 c7             	mov    %rax,%rdi
  403322:	e8 19 f0 ff ff       	callq  402340 <_ZNSt14basic_ofstreamIcSt11char_traitsIcEE5closeEv@plt>
  403327:	e8 45 fa ff ff       	callq  402d71 <_Z9timestampv>
  40332c:	48 2b 85 e0 f8 ff ff 	sub    -0x720(%rbp),%rax
  403333:	48 89 85 e0 f8 ff ff 	mov    %rax,-0x720(%rbp)
  40333a:	66 0f ef c0          	pxor   %xmm0,%xmm0
  40333e:	f2 48 0f 2a 85 e0 f8 	cvtsi2sdq -0x720(%rbp),%xmm0
  403345:	ff ff 
  403347:	f2 0f 10 0d b9 18 00 	movsd  0x18b9(%rip),%xmm1        # 404c08 <_ZStL6ignore+0xfe>
  40334e:	00 
  40334f:	f2 0f 5e c1          	divsd  %xmm1,%xmm0
  403353:	f2 0f 11 85 b0 f8 ff 	movsd  %xmm0,-0x750(%rbp)
  40335a:	ff 
  40335b:	be 28 4b 40 00       	mov    $0x404b28,%esi
  403360:	bf a0 63 60 00       	mov    $0x6063a0,%edi
  403365:	e8 d6 ee ff ff       	callq  402240 <_ZStlsISt11char_traitsIcEERSt13basic_ostreamIcT_ES5_PKc@plt>
  40336a:	f2 0f 10 85 b0 f8 ff 	movsd  -0x750(%rbp),%xmm0
  403371:	ff 
  403372:	48 89 c7             	mov    %rax,%rdi
  403375:	e8 26 f1 ff ff       	callq  4024a0 <_ZNSolsEd@plt>
  40337a:	be 45 4b 40 00       	mov    $0x404b45,%esi
  40337f:	48 89 c7             	mov    %rax,%rdi
  403382:	e8 b9 ee ff ff       	callq  402240 <_ZStlsISt11char_traitsIcEERSt13basic_ostreamIcT_ES5_PKc@plt>
  403387:	be 40 21 40 00       	mov    $0x402140,%esi
  40338c:	48 89 c7             	mov    %rax,%rdi
  40338f:	e8 bc ee ff ff       	callq  402250 <_ZNSolsEPFRSoS_E@plt>
  403394:	48 8d 85 a0 f9 ff ff 	lea    -0x660(%rbp),%rax
  40339b:	48 89 c7             	mov    %rax,%rdi
  40339e:	e8 bd ed ff ff       	callq  402160 <_ZNSt7__cxx1112basic_stringIcSt11char_traitsIcESaIcEED1Ev@plt>
  4033a3:	48 8d 85 c0 fd ff ff 	lea    -0x240(%rbp),%rax
  4033aa:	48 89 c7             	mov    %rax,%rdi
  4033ad:	e8 ce ef ff ff       	callq  402380 <_ZNSt14basic_ofstreamIcSt11char_traitsIcEED1Ev@plt>
  4033b2:	48 8d 85 c0 fb ff ff 	lea    -0x440(%rbp),%rax
  4033b9:	48 89 c7             	mov    %rax,%rdi
  4033bc:	e8 bf ef ff ff       	callq  402380 <_ZNSt14basic_ofstreamIcSt11char_traitsIcEED1Ev@plt>
  4033c1:	48 8d 85 c0 f9 ff ff 	lea    -0x640(%rbp),%rax
  4033c8:	48 89 c7             	mov    %rax,%rdi
  4033cb:	e8 b0 ef ff ff       	callq  402380 <_ZNSt14basic_ofstreamIcSt11char_traitsIcEED1Ev@plt>
  4033d0:	48 89 dc             	mov    %rbx,%rsp
  4033d3:	90                   	nop
  4033d4:	48 8b 45 c8          	mov    -0x38(%rbp),%rax
  4033d8:	64 48 33 04 25 28 00 	xor    %fs:0x28,%rax
  4033df:	00 00 
  4033e1:	74 60                	je     403443 <_Z5setupiPcS_+0x67a>
  4033e3:	eb 59                	jmp    40343e <_Z5setupiPcS_+0x675>
  4033e5:	48 89 c3             	mov    %rax,%rbx
  4033e8:	48 8d 85 a0 f9 ff ff 	lea    -0x660(%rbp),%rax
  4033ef:	48 89 c7             	mov    %rax,%rdi
  4033f2:	e8 69 ed ff ff       	callq  402160 <_ZNSt7__cxx1112basic_stringIcSt11char_traitsIcESaIcEED1Ev@plt>
  4033f7:	eb 03                	jmp    4033fc <_Z5setupiPcS_+0x633>
  4033f9:	48 89 c3             	mov    %rax,%rbx
  4033fc:	48 8d 85 c0 fd ff ff 	lea    -0x240(%rbp),%rax
  403403:	48 89 c7             	mov    %rax,%rdi
  403406:	e8 75 ef ff ff       	callq  402380 <_ZNSt14basic_ofstreamIcSt11char_traitsIcEED1Ev@plt>
  40340b:	eb 03                	jmp    403410 <_Z5setupiPcS_+0x647>
  40340d:	48 89 c3             	mov    %rax,%rbx
  403410:	48 8d 85 c0 fb ff ff 	lea    -0x440(%rbp),%rax
  403417:	48 89 c7             	mov    %rax,%rdi
  40341a:	e8 61 ef ff ff       	callq  402380 <_ZNSt14basic_ofstreamIcSt11char_traitsIcEED1Ev@plt>
  40341f:	eb 03                	jmp    403424 <_Z5setupiPcS_+0x65b>
  403421:	48 89 c3             	mov    %rax,%rbx
  403424:	48 8d 85 c0 f9 ff ff 	lea    -0x640(%rbp),%rax
  40342b:	48 89 c7             	mov    %rax,%rdi
  40342e:	e8 4d ef ff ff       	callq  402380 <_ZNSt14basic_ofstreamIcSt11char_traitsIcEED1Ev@plt>
  403433:	48 89 d8             	mov    %rbx,%rax
  403436:	48 89 c7             	mov    %rax,%rdi
  403439:	e8 12 f0 ff ff       	callq  402450 <_Unwind_Resume@plt>
  40343e:	e8 3d ee ff ff       	callq  402280 <__stack_chk_fail@plt>
  403443:	48 8d 65 d8          	lea    -0x28(%rbp),%rsp
  403447:	5b                   	pop    %rbx
  403448:	41 5c                	pop    %r12
  40344a:	41 5d                	pop    %r13
  40344c:	41 5e                	pop    %r14
  40344e:	41 5f                	pop    %r15
  403450:	5d                   	pop    %rbp
  403451:	c3                   	retq   

0000000000403452 <_Z9runsocketiNSt7__cxx1112basic_stringIcSt11char_traitsIcESaIcEEES4_>:
  403452:	55                   	push   %rbp
  403453:	48 89 e5             	mov    %rsp,%rbp
  403456:	41 57                	push   %r15
  403458:	41 56                	push   %r14
  40345a:	41 55                	push   %r13
  40345c:	41 54                	push   %r12
  40345e:	53                   	push   %rbx
  40345f:	48 81 ec d8 00 00 00 	sub    $0xd8,%rsp
  403466:	89 bd 3c ff ff ff    	mov    %edi,-0xc4(%rbp)
  40346c:	48 89 b5 30 ff ff ff 	mov    %rsi,-0xd0(%rbp)
  403473:	48 89 95 28 ff ff ff 	mov    %rdx,-0xd8(%rbp)
  40347a:	64 48 8b 04 25 28 00 	mov    %fs:0x28,%rax
  403481:	00 00 
  403483:	48 89 45 c8          	mov    %rax,-0x38(%rbp)
  403487:	31 c0                	xor    %eax,%eax
  403489:	48 8b 85 28 ff ff ff 	mov    -0xd8(%rbp),%rax
  403490:	48 89 c7             	mov    %rax,%rdi
  403493:	e8 f8 ee ff ff       	callq  402390 <_ZNKSt7__cxx1112basic_stringIcSt11char_traitsIcESaIcEE6lengthEv@plt>
  403498:	89 85 54 ff ff ff    	mov    %eax,-0xac(%rbp)
  40349e:	48 89 e0             	mov    %rsp,%rax
  4034a1:	48 89 c3             	mov    %rax,%rbx
  4034a4:	c7 85 4c ff ff ff 01 	movl   $0x1,-0xb4(%rbp)
  4034ab:	00 00 00 
  4034ae:	b8 10 00 00 00       	mov    $0x10,%eax
  4034b3:	89 85 50 ff ff ff    	mov    %eax,-0xb0(%rbp)
  4034b9:	8b 85 54 ff ff ff    	mov    -0xac(%rbp),%eax
  4034bf:	48 98                	cltq   
  4034c1:	48 8d 48 ff          	lea    -0x1(%rax),%rcx
  4034c5:	48 89 8d 60 ff ff ff 	mov    %rcx,-0xa0(%rbp)
  4034cc:	48 89 c8             	mov    %rcx,%rax
  4034cf:	48 83 c0 01          	add    $0x1,%rax
  4034d3:	49 89 c4             	mov    %rax,%r12
  4034d6:	41 bd 00 00 00 00    	mov    $0x0,%r13d
  4034dc:	48 89 c8             	mov    %rcx,%rax
  4034df:	48 83 c0 01          	add    $0x1,%rax
  4034e3:	49 89 c6             	mov    %rax,%r14
  4034e6:	41 bf 00 00 00 00    	mov    $0x0,%r15d
  4034ec:	48 89 c8             	mov    %rcx,%rax
  4034ef:	48 8d 50 01          	lea    0x1(%rax),%rdx
  4034f3:	b8 10 00 00 00       	mov    $0x10,%eax
  4034f8:	48 83 e8 01          	sub    $0x1,%rax
  4034fc:	48 01 d0             	add    %rdx,%rax
  4034ff:	be 10 00 00 00       	mov    $0x10,%esi
  403504:	ba 00 00 00 00       	mov    $0x0,%edx
  403509:	48 f7 f6             	div    %rsi
  40350c:	48 6b c0 10          	imul   $0x10,%rax,%rax
  403510:	48 29 c4             	sub    %rax,%rsp
  403513:	48 89 e0             	mov    %rsp,%rax
  403516:	48 83 c0 00          	add    $0x0,%rax
  40351a:	48 89 85 68 ff ff ff 	mov    %rax,-0x98(%rbp)
  403521:	48 8b 85 68 ff ff ff 	mov    -0x98(%rbp),%rax
  403528:	48 89 ca             	mov    %rcx,%rdx
  40352b:	c6 00 00             	movb   $0x0,(%rax)
  40352e:	48 83 c0 01          	add    $0x1,%rax
  403532:	48 83 ea 01          	sub    $0x1,%rdx
  403536:	48 83 fa ff          	cmp    $0xffffffffffffffff,%rdx
  40353a:	74 0d                	je     403549 <_Z9runsocketiNSt7__cxx1112basic_stringIcSt11char_traitsIcESaIcEEES4_+0xf7>
  40353c:	c6 00 00             	movb   $0x0,(%rax)
  40353f:	48 83 c0 01          	add    $0x1,%rax
  403543:	48 83 ea 01          	sub    $0x1,%rdx
  403547:	eb ed                	jmp    403536 <_Z9runsocketiNSt7__cxx1112basic_stringIcSt11char_traitsIcESaIcEEES4_+0xe4>
  403549:	8b 85 54 ff ff ff    	mov    -0xac(%rbp),%eax
  40354f:	48 98                	cltq   
  403551:	48 8d 48 ff          	lea    -0x1(%rax),%rcx
  403555:	48 89 8d 70 ff ff ff 	mov    %rcx,-0x90(%rbp)
  40355c:	48 89 c8             	mov    %rcx,%rax
  40355f:	48 83 c0 01          	add    $0x1,%rax
  403563:	48 89 85 10 ff ff ff 	mov    %rax,-0xf0(%rbp)
  40356a:	48 c7 85 18 ff ff ff 	movq   $0x0,-0xe8(%rbp)
  403571:	00 00 00 00 
  403575:	48 89 c8             	mov    %rcx,%rax
  403578:	48 83 c0 01          	add    $0x1,%rax
  40357c:	48 89 85 00 ff ff ff 	mov    %rax,-0x100(%rbp)
  403583:	48 c7 85 08 ff ff ff 	movq   $0x0,-0xf8(%rbp)
  40358a:	00 00 00 00 
  40358e:	48 89 c8             	mov    %rcx,%rax
  403591:	48 8d 50 01          	lea    0x1(%rax),%rdx
  403595:	b8 10 00 00 00       	mov    $0x10,%eax
  40359a:	48 83 e8 01          	sub    $0x1,%rax
  40359e:	48 01 d0             	add    %rdx,%rax
  4035a1:	be 10 00 00 00       	mov    $0x10,%esi
  4035a6:	ba 00 00 00 00       	mov    $0x0,%edx
  4035ab:	48 f7 f6             	div    %rsi
  4035ae:	48 6b c0 10          	imul   $0x10,%rax,%rax
  4035b2:	48 29 c4             	sub    %rax,%rsp
  4035b5:	48 89 e0             	mov    %rsp,%rax
  4035b8:	48 83 c0 00          	add    $0x0,%rax
  4035bc:	48 89 85 78 ff ff ff 	mov    %rax,-0x88(%rbp)
  4035c3:	48 8b 85 78 ff ff ff 	mov    -0x88(%rbp),%rax
  4035ca:	48 89 ca             	mov    %rcx,%rdx
  4035cd:	c6 00 00             	movb   $0x0,(%rax)
  4035d0:	48 83 c0 01          	add    $0x1,%rax
  4035d4:	48 83 ea 01          	sub    $0x1,%rdx
  4035d8:	48 83 fa ff          	cmp    $0xffffffffffffffff,%rdx
  4035dc:	74 0d                	je     4035eb <_Z9runsocketiNSt7__cxx1112basic_stringIcSt11char_traitsIcESaIcEEES4_+0x199>
  4035de:	c6 00 00             	movb   $0x0,(%rax)
  4035e1:	48 83 c0 01          	add    $0x1,%rax
  4035e5:	48 83 ea 01          	sub    $0x1,%rdx
  4035e9:	eb ed                	jmp    4035d8 <_Z9runsocketiNSt7__cxx1112basic_stringIcSt11char_traitsIcESaIcEEES4_+0x186>
  4035eb:	ba 00 00 00 00       	mov    $0x0,%edx
  4035f0:	be 01 00 00 00       	mov    $0x1,%esi
  4035f5:	bf 02 00 00 00       	mov    $0x2,%edi
  4035fa:	e8 91 ea ff ff       	callq  402090 <socket@plt>
  4035ff:	89 85 58 ff ff ff    	mov    %eax,-0xa8(%rbp)
  403605:	83 bd 58 ff ff ff 00 	cmpl   $0x0,-0xa8(%rbp)
  40360c:	0f 94 c0             	sete   %al
  40360f:	84 c0                	test   %al,%al
  403611:	74 14                	je     403627 <_Z9runsocketiNSt7__cxx1112basic_stringIcSt11char_traitsIcESaIcEEES4_+0x1d5>
  403613:	bf 49 4b 40 00       	mov    $0x404b49,%edi
  403618:	e8 a3 eb ff ff       	callq  4021c0 <perror@plt>
  40361d:	bf 01 00 00 00       	mov    $0x1,%edi
  403622:	e8 89 ec ff ff       	callq  4022b0 <exit@plt>
  403627:	b9 04 00 00 00       	mov    $0x4,%ecx
  40362c:	48 8d 95 4c ff ff ff 	lea    -0xb4(%rbp),%rdx
  403633:	8b 85 58 ff ff ff    	mov    -0xa8(%rbp),%eax
  403639:	41 89 c8             	mov    %ecx,%r8d
  40363c:	48 89 d1             	mov    %rdx,%rcx
  40363f:	ba 0f 00 00 00       	mov    $0xf,%edx
  403644:	be 01 00 00 00       	mov    $0x1,%esi
  403649:	89 c7                	mov    %eax,%edi
  40364b:	e8 20 ee ff ff       	callq  402470 <setsockopt@plt>
  403650:	85 c0                	test   %eax,%eax
  403652:	0f 95 c0             	setne  %al
  403655:	84 c0                	test   %al,%al
  403657:	74 14                	je     40366d <_Z9runsocketiNSt7__cxx1112basic_stringIcSt11char_traitsIcESaIcEEES4_+0x21b>
  403659:	bf 57 4b 40 00       	mov    $0x404b57,%edi
  40365e:	e8 5d eb ff ff       	callq  4021c0 <perror@plt>
  403663:	bf 01 00 00 00       	mov    $0x1,%edi
  403668:	e8 43 ec ff ff       	callq  4022b0 <exit@plt>
  40366d:	66 c7 45 80 02 00    	movw   $0x2,-0x80(%rbp)
  403673:	c7 45 84 00 00 00 00 	movl   $0x0,-0x7c(%rbp)
  40367a:	8b 85 3c ff ff ff    	mov    -0xc4(%rbp),%eax
  403680:	0f b7 c0             	movzwl %ax,%eax
  403683:	89 c7                	mov    %eax,%edi
  403685:	e8 76 e9 ff ff       	callq  402000 <htons@plt>
  40368a:	66 89 45 82          	mov    %ax,-0x7e(%rbp)
  40368e:	ba 10 00 00 00       	mov    $0x10,%edx
  403693:	48 8d 4d 80          	lea    -0x80(%rbp),%rcx
  403697:	8b 85 58 ff ff ff    	mov    -0xa8(%rbp),%eax
  40369d:	48 89 ce             	mov    %rcx,%rsi
  4036a0:	89 c7                	mov    %eax,%edi
  4036a2:	e8 89 e9 ff ff       	callq  402030 <bind@plt>
  4036a7:	c1 e8 1f             	shr    $0x1f,%eax
  4036aa:	84 c0                	test   %al,%al
  4036ac:	74 14                	je     4036c2 <_Z9runsocketiNSt7__cxx1112basic_stringIcSt11char_traitsIcESaIcEEES4_+0x270>
  4036ae:	bf 62 4b 40 00       	mov    $0x404b62,%edi
  4036b3:	e8 08 eb ff ff       	callq  4021c0 <perror@plt>
  4036b8:	bf 01 00 00 00       	mov    $0x1,%edi
  4036bd:	e8 ee eb ff ff       	callq  4022b0 <exit@plt>
  4036c2:	8b 85 58 ff ff ff    	mov    -0xa8(%rbp),%eax
  4036c8:	be 03 00 00 00       	mov    $0x3,%esi
  4036cd:	89 c7                	mov    %eax,%edi
  4036cf:	e8 bc eb ff ff       	callq  402290 <listen@plt>
  4036d4:	c1 e8 1f             	shr    $0x1f,%eax
  4036d7:	84 c0                	test   %al,%al
  4036d9:	74 14                	je     4036ef <_Z9runsocketiNSt7__cxx1112basic_stringIcSt11char_traitsIcESaIcEEES4_+0x29d>
  4036db:	bf 6e 4b 40 00       	mov    $0x404b6e,%edi
  4036e0:	e8 db ea ff ff       	callq  4021c0 <perror@plt>
  4036e5:	bf 01 00 00 00       	mov    $0x1,%edi
  4036ea:	e8 c1 eb ff ff       	callq  4022b0 <exit@plt>
  4036ef:	be 75 4b 40 00       	mov    $0x404b75,%esi
  4036f4:	bf a0 63 60 00       	mov    $0x6063a0,%edi
  4036f9:	e8 42 eb ff ff       	callq  402240 <_ZStlsISt11char_traitsIcEERSt13basic_ostreamIcT_ES5_PKc@plt>
  4036fe:	48 89 c2             	mov    %rax,%rdx
  403701:	8b 85 3c ff ff ff    	mov    -0xc4(%rbp),%eax
  403707:	89 c6                	mov    %eax,%esi
  403709:	48 89 d7             	mov    %rdx,%rdi
  40370c:	e8 1f ed ff ff       	callq  402430 <_ZNSolsEi@plt>
  403711:	be 40 21 40 00       	mov    $0x402140,%esi
  403716:	48 89 c7             	mov    %rax,%rdi
  403719:	e8 32 eb ff ff       	callq  402250 <_ZNSolsEPFRSoS_E@plt>
  40371e:	48 8d 95 50 ff ff ff 	lea    -0xb0(%rbp),%rdx
  403725:	48 8d 4d 80          	lea    -0x80(%rbp),%rcx
  403729:	8b 85 58 ff ff ff    	mov    -0xa8(%rbp),%eax
  40372f:	48 89 ce             	mov    %rcx,%rsi
  403732:	89 c7                	mov    %eax,%edi
  403734:	e8 b7 e9 ff ff       	callq  4020f0 <accept@plt>
  403739:	89 85 5c ff ff ff    	mov    %eax,-0xa4(%rbp)
  40373f:	8b 85 5c ff ff ff    	mov    -0xa4(%rbp),%eax
  403745:	c1 e8 1f             	shr    $0x1f,%eax
  403748:	84 c0                	test   %al,%al
  40374a:	74 14                	je     403760 <_Z9runsocketiNSt7__cxx1112basic_stringIcSt11char_traitsIcESaIcEEES4_+0x30e>
  40374c:	bf 88 4b 40 00       	mov    $0x404b88,%edi
  403751:	e8 6a ea ff ff       	callq  4021c0 <perror@plt>
  403756:	bf 01 00 00 00       	mov    $0x1,%edi
  40375b:	e8 50 eb ff ff       	callq  4022b0 <exit@plt>
  403760:	8b 85 54 ff ff ff    	mov    -0xac(%rbp),%eax
  403766:	48 63 d0             	movslq %eax,%rdx
  403769:	48 8b 8d 68 ff ff ff 	mov    -0x98(%rbp),%rcx
  403770:	8b 85 5c ff ff ff    	mov    -0xa4(%rbp),%eax
  403776:	48 89 ce             	mov    %rcx,%rsi
  403779:	89 c7                	mov    %eax,%edi
  40377b:	e8 e0 eb ff ff       	callq  402360 <read@plt>
  403780:	48 85 c0             	test   %rax,%rax
  403783:	0f 95 c0             	setne  %al
  403786:	84 c0                	test   %al,%al
  403788:	0f 84 c3 00 00 00    	je     403851 <_Z9runsocketiNSt7__cxx1112basic_stringIcSt11char_traitsIcESaIcEEES4_+0x3ff>
  40378e:	48 8b 8d 68 ff ff ff 	mov    -0x98(%rbp),%rcx
  403795:	48 8d 45 90          	lea    -0x70(%rbp),%rax
  403799:	ba 10 00 00 00       	mov    $0x10,%edx
  40379e:	48 89 ce             	mov    %rcx,%rsi
  4037a1:	48 89 c7             	mov    %rax,%rdi
  4037a4:	e8 07 e9 ff ff       	callq  4020b0 <__gmpz_init_set_str@plt>
  4037a9:	48 8b 85 30 ff ff ff 	mov    -0xd0(%rbp),%rax
  4037b0:	48 89 c7             	mov    %rax,%rdi
  4037b3:	e8 58 e9 ff ff       	callq  402110 <_ZNKSt7__cxx1112basic_stringIcSt11char_traitsIcESaIcEE5c_strEv@plt>
  4037b8:	48 89 c1             	mov    %rax,%rcx
  4037bb:	48 8d 45 a0          	lea    -0x60(%rbp),%rax
  4037bf:	ba 10 00 00 00       	mov    $0x10,%edx
  4037c4:	48 89 ce             	mov    %rcx,%rsi
  4037c7:	48 89 c7             	mov    %rax,%rdi
  4037ca:	e8 e1 e8 ff ff       	callq  4020b0 <__gmpz_init_set_str@plt>
  4037cf:	48 8b 85 28 ff ff ff 	mov    -0xd8(%rbp),%rax
  4037d6:	48 89 c7             	mov    %rax,%rdi
  4037d9:	e8 32 e9 ff ff       	callq  402110 <_ZNKSt7__cxx1112basic_stringIcSt11char_traitsIcESaIcEE5c_strEv@plt>
  4037de:	48 89 c1             	mov    %rax,%rcx
  4037e1:	48 8d 45 b0          	lea    -0x50(%rbp),%rax
  4037e5:	ba 10 00 00 00       	mov    $0x10,%edx
  4037ea:	48 89 ce             	mov    %rcx,%rsi
  4037ed:	48 89 c7             	mov    %rax,%rdi
  4037f0:	e8 bb e8 ff ff       	callq  4020b0 <__gmpz_init_set_str@plt>
  4037f5:	48 8d 4d b0          	lea    -0x50(%rbp),%rcx
  4037f9:	48 8d 55 a0          	lea    -0x60(%rbp),%rdx
  4037fd:	48 8d 75 90          	lea    -0x70(%rbp),%rsi
  403801:	48 8d 45 90          	lea    -0x70(%rbp),%rax
  403805:	48 89 c7             	mov    %rax,%rdi
  403808:	e8 33 ec ff ff       	callq  402440 <__gmpz_powm@plt>
  40380d:	48 8b 85 78 ff ff ff 	mov    -0x88(%rbp),%rax
  403814:	48 8d 55 90          	lea    -0x70(%rbp),%rdx
  403818:	be 8f 4b 40 00       	mov    $0x404b8f,%esi
  40381d:	48 89 c7             	mov    %rax,%rdi
  403820:	b8 00 00 00 00       	mov    $0x0,%eax
  403825:	e8 86 e9 ff ff       	callq  4021b0 <__gmp_sprintf@plt>
  40382a:	8b 85 54 ff ff ff    	mov    -0xac(%rbp),%eax
  403830:	48 63 d0             	movslq %eax,%rdx
  403833:	48 8b b5 78 ff ff ff 	mov    -0x88(%rbp),%rsi
  40383a:	8b 85 5c ff ff ff    	mov    -0xa4(%rbp),%eax
  403840:	b9 00 00 00 00       	mov    $0x0,%ecx
  403845:	89 c7                	mov    %eax,%edi
  403847:	e8 04 e9 ff ff       	callq  402150 <send@plt>
  40384c:	e9 0f ff ff ff       	jmpq   403760 <_Z9runsocketiNSt7__cxx1112basic_stringIcSt11char_traitsIcESaIcEEES4_+0x30e>
  403851:	48 89 dc             	mov    %rbx,%rsp
  403854:	e9 45 fc ff ff       	jmpq   40349e <_Z9runsocketiNSt7__cxx1112basic_stringIcSt11char_traitsIcESaIcEEES4_+0x4c>

0000000000403859 <_Z4signiNSt7__cxx1112basic_stringIcSt11char_traitsIcESaIcEEE>:
  403859:	55                   	push   %rbp
  40385a:	48 89 e5             	mov    %rsp,%rbp
  40385d:	53                   	push   %rbx
  40385e:	48 81 ec e8 08 00 00 	sub    $0x8e8,%rsp
  403865:	89 bd 1c f7 ff ff    	mov    %edi,-0x8e4(%rbp)
  40386b:	48 89 b5 10 f7 ff ff 	mov    %rsi,-0x8f0(%rbp)
  403872:	64 48 8b 04 25 28 00 	mov    %fs:0x28,%rax
  403879:	00 00 
  40387b:	48 89 45 e8          	mov    %rax,-0x18(%rbp)
  40387f:	31 c0                	xor    %eax,%eax
  403881:	48 8d 85 c0 f9 ff ff 	lea    -0x640(%rbp),%rax
  403888:	ba 08 00 00 00       	mov    $0x8,%edx
  40388d:	be c0 62 60 00       	mov    $0x6062c0,%esi
  403892:	48 89 c7             	mov    %rax,%rdi
  403895:	e8 e6 eb ff ff       	callq  402480 <_ZNSt14basic_ifstreamIcSt11char_traitsIcEEC1EPKcSt13_Ios_Openmode@plt>
  40389a:	48 8d 85 30 f7 ff ff 	lea    -0x8d0(%rbp),%rax
  4038a1:	48 89 c7             	mov    %rax,%rdi
  4038a4:	e8 67 ea ff ff       	callq  402310 <_ZNSt7__cxx1112basic_stringIcSt11char_traitsIcESaIcEEC1Ev@plt>
  4038a9:	48 8d 85 c0 f9 ff ff 	lea    -0x640(%rbp),%rax
  4038b0:	48 89 c7             	mov    %rax,%rdi
  4038b3:	e8 18 eb ff ff       	callq  4023d0 <_ZNSt14basic_ifstreamIcSt11char_traitsIcEE7is_openEv@plt>
  4038b8:	84 c0                	test   %al,%al
  4038ba:	0f 84 96 04 00 00    	je     403d56 <_Z4signiNSt7__cxx1112basic_stringIcSt11char_traitsIcESaIcEEE+0x4fd>
  4038c0:	48 8b 95 10 f7 ff ff 	mov    -0x8f0(%rbp),%rdx
  4038c7:	48 8d 85 20 f7 ff ff 	lea    -0x8e0(%rbp),%rax
  4038ce:	48 89 d6             	mov    %rdx,%rsi
  4038d1:	48 89 c7             	mov    %rax,%rdi
  4038d4:	e8 27 09 00 00       	callq  404200 <_ZNKSt4hashINSt7__cxx1112basic_stringIcSt11char_traitsIcESaIcEEEEclERKS5_>
  4038d9:	48 89 85 28 f7 ff ff 	mov    %rax,-0x8d8(%rbp)
  4038e0:	be 08 00 00 00       	mov    $0x8,%esi
  4038e5:	bf 10 00 00 00       	mov    $0x10,%edi
  4038ea:	e8 e4 09 00 00       	callq  4042d3 <_ZStorSt13_Ios_OpenmodeS_>
  4038ef:	89 c2                	mov    %eax,%edx
  4038f1:	48 8d 85 30 f8 ff ff 	lea    -0x7d0(%rbp),%rax
  4038f8:	89 d6                	mov    %edx,%esi
  4038fa:	48 89 c7             	mov    %rax,%rdi
  4038fd:	e8 9e e8 ff ff       	callq  4021a0 <_ZNSt7__cxx1118basic_stringstreamIcSt11char_traitsIcESaIcEEC1ESt13_Ios_Openmode@plt>
  403902:	48 8d 85 30 f8 ff ff 	lea    -0x7d0(%rbp),%rax
  403909:	48 83 c0 10          	add    $0x10,%rax
  40390d:	be 48 43 40 00       	mov    $0x404348,%esi
  403912:	48 89 c7             	mov    %rax,%rdi
  403915:	e8 e6 e7 ff ff       	callq  402100 <_ZNSolsEPFRSt8ios_baseS0_E@plt>
  40391a:	48 89 c2             	mov    %rax,%rdx
  40391d:	48 8b 85 28 f7 ff ff 	mov    -0x8d8(%rbp),%rax
  403924:	48 89 c6             	mov    %rax,%rsi
  403927:	48 89 d7             	mov    %rdx,%rdi
  40392a:	e8 51 e7 ff ff       	callq  402080 <_ZNSolsEm@plt>
  40392f:	48 8d 85 50 f7 ff ff 	lea    -0x8b0(%rbp),%rax
  403936:	48 89 c7             	mov    %rax,%rdi
  403939:	e8 d2 e9 ff ff       	callq  402310 <_ZNSt7__cxx1112basic_stringIcSt11char_traitsIcESaIcEEC1Ev@plt>
  40393e:	48 8d 95 50 f7 ff ff 	lea    -0x8b0(%rbp),%rdx
  403945:	48 8d 85 30 f8 ff ff 	lea    -0x7d0(%rbp),%rax
  40394c:	48 89 d6             	mov    %rdx,%rsi
  40394f:	48 89 c7             	mov    %rax,%rdi
  403952:	e8 79 e9 ff ff       	callq  4022d0 <_ZStrsIcSt11char_traitsIcESaIcEERSt13basic_istreamIT_T0_ES7_RNSt7__cxx1112basic_stringIS4_S5_T1_EE@plt>
  403957:	48 8d 85 21 f7 ff ff 	lea    -0x8df(%rbp),%rax
  40395e:	48 89 c7             	mov    %rax,%rdi
  403961:	e8 fa ea ff ff       	callq  402460 <_ZNSaIcEC1Ev@plt>
  403966:	48 8d 95 21 f7 ff ff 	lea    -0x8df(%rbp),%rdx
  40396d:	48 8d 85 70 f7 ff ff 	lea    -0x890(%rbp),%rax
  403974:	be 13 4b 40 00       	mov    $0x404b13,%esi
  403979:	48 89 c7             	mov    %rax,%rdi
  40397c:	e8 6f e9 ff ff       	callq  4022f0 <_ZNSt7__cxx1112basic_stringIcSt11char_traitsIcESaIcEEC1EPKcRKS3_@plt>
  403981:	48 8d 85 21 f7 ff ff 	lea    -0x8df(%rbp),%rax
  403988:	48 89 c7             	mov    %rax,%rdi
  40398b:	e8 d0 e8 ff ff       	callq  402260 <_ZNSaIcED1Ev@plt>
  403990:	48 8d 85 21 f7 ff ff 	lea    -0x8df(%rbp),%rax
  403997:	48 89 c7             	mov    %rax,%rdi
  40399a:	e8 c1 ea ff ff       	callq  402460 <_ZNSaIcEC1Ev@plt>
  40399f:	48 8d 95 21 f7 ff ff 	lea    -0x8df(%rbp),%rdx
  4039a6:	48 8d 85 90 f7 ff ff 	lea    -0x870(%rbp),%rax
  4039ad:	be 13 4b 40 00       	mov    $0x404b13,%esi
  4039b2:	48 89 c7             	mov    %rax,%rdi
  4039b5:	e8 36 e9 ff ff       	callq  4022f0 <_ZNSt7__cxx1112basic_stringIcSt11char_traitsIcESaIcEEC1EPKcRKS3_@plt>
  4039ba:	48 8d 85 21 f7 ff ff 	lea    -0x8df(%rbp),%rax
  4039c1:	48 89 c7             	mov    %rax,%rdi
  4039c4:	e8 97 e8 ff ff       	callq  402260 <_ZNSaIcED1Ev@plt>
  4039c9:	c6 85 22 f7 ff ff 00 	movb   $0x0,-0x8de(%rbp)
  4039d0:	c7 85 24 f7 ff ff 00 	movl   $0x0,-0x8dc(%rbp)
  4039d7:	00 00 00 
  4039da:	c6 85 23 f7 ff ff 00 	movb   $0x0,-0x8dd(%rbp)
  4039e1:	0f b6 85 23 f7 ff ff 	movzbl -0x8dd(%rbp),%eax
  4039e8:	83 f0 01             	xor    $0x1,%eax
  4039eb:	84 c0                	test   %al,%al
  4039ed:	74 39                	je     403a28 <_Z4signiNSt7__cxx1112basic_stringIcSt11char_traitsIcESaIcEEE+0x1cf>
  4039ef:	48 8d 95 30 f7 ff ff 	lea    -0x8d0(%rbp),%rdx
  4039f6:	48 8d 85 c0 f9 ff ff 	lea    -0x640(%rbp),%rax
  4039fd:	48 89 d6             	mov    %rdx,%rsi
  403a00:	48 89 c7             	mov    %rax,%rdi
  403a03:	e8 48 e6 ff ff       	callq  402050 <_ZSt7getlineIcSt11char_traitsIcESaIcEERSt13basic_istreamIT_T0_ES7_RNSt7__cxx1112basic_stringIS4_S5_T1_EE@plt>
  403a08:	48 8b 10             	mov    (%rax),%rdx
  403a0b:	48 83 ea 18          	sub    $0x18,%rdx
  403a0f:	48 8b 12             	mov    (%rdx),%rdx
  403a12:	48 01 d0             	add    %rdx,%rax
  403a15:	48 89 c7             	mov    %rax,%rdi
  403a18:	e8 a3 e8 ff ff       	callq  4022c0 <_ZNKSt9basic_iosIcSt11char_traitsIcEEcvbEv@plt>
  403a1d:	84 c0                	test   %al,%al
  403a1f:	74 07                	je     403a28 <_Z4signiNSt7__cxx1112basic_stringIcSt11char_traitsIcESaIcEEE+0x1cf>
  403a21:	b8 01 00 00 00       	mov    $0x1,%eax
  403a26:	eb 05                	jmp    403a2d <_Z4signiNSt7__cxx1112basic_stringIcSt11char_traitsIcESaIcEEE+0x1d4>
  403a28:	b8 00 00 00 00       	mov    $0x0,%eax
  403a2d:	84 c0                	test   %al,%al
  403a2f:	0f 84 c3 00 00 00    	je     403af8 <_Z4signiNSt7__cxx1112basic_stringIcSt11char_traitsIcESaIcEEE+0x29f>
  403a35:	48 8d 85 30 f7 ff ff 	lea    -0x8d0(%rbp),%rax
  403a3c:	be 13 4b 40 00       	mov    $0x404b13,%esi
  403a41:	48 89 c7             	mov    %rax,%rdi
  403a44:	e8 fc 09 00 00       	callq  404445 <_ZSteqIcSt11char_traitsIcESaIcEEbRKNSt7__cxx1112basic_stringIT_T0_T1_EEPKS5_>
  403a49:	84 c0                	test   %al,%al
  403a4b:	74 0f                	je     403a5c <_Z4signiNSt7__cxx1112basic_stringIcSt11char_traitsIcESaIcEEE+0x203>
  403a4d:	c7 85 24 f7 ff ff ff 	movl   $0xffffffff,-0x8dc(%rbp)
  403a54:	ff ff ff 
  403a57:	e9 90 00 00 00       	jmpq   403aec <_Z4signiNSt7__cxx1112basic_stringIcSt11char_traitsIcESaIcEEE+0x293>
  403a5c:	8b 85 24 f7 ff ff    	mov    -0x8dc(%rbp),%eax
  403a62:	83 f8 01             	cmp    $0x1,%eax
  403a65:	74 2f                	je     403a96 <_Z4signiNSt7__cxx1112basic_stringIcSt11char_traitsIcESaIcEEE+0x23d>
  403a67:	83 f8 02             	cmp    $0x2,%eax
  403a6a:	74 4e                	je     403aba <_Z4signiNSt7__cxx1112basic_stringIcSt11char_traitsIcESaIcEEE+0x261>
  403a6c:	85 c0                	test   %eax,%eax
  403a6e:	75 7c                	jne    403aec <_Z4signiNSt7__cxx1112basic_stringIcSt11char_traitsIcESaIcEEE+0x293>
  403a70:	48 8d 95 50 f7 ff ff 	lea    -0x8b0(%rbp),%rdx
  403a77:	48 8d 85 30 f7 ff ff 	lea    -0x8d0(%rbp),%rax
  403a7e:	48 89 d6             	mov    %rdx,%rsi
  403a81:	48 89 c7             	mov    %rax,%rdi
  403a84:	e8 e6 09 00 00       	callq  40446f <_ZSteqIcEN9__gnu_cxx11__enable_ifIXsrSt9__is_charIT_E7__valueEbE6__typeERKNSt7__cxx1112basic_stringIS3_St11char_traitsIS3_ESaIS3_EEESE_>
  403a89:	84 c0                	test   %al,%al
  403a8b:	74 58                	je     403ae5 <_Z4signiNSt7__cxx1112basic_stringIcSt11char_traitsIcESaIcEEE+0x28c>
  403a8d:	c6 85 22 f7 ff ff 01 	movb   $0x1,-0x8de(%rbp)
  403a94:	eb 4f                	jmp    403ae5 <_Z4signiNSt7__cxx1112basic_stringIcSt11char_traitsIcESaIcEEE+0x28c>
  403a96:	80 bd 22 f7 ff ff 00 	cmpb   $0x0,-0x8de(%rbp)
  403a9d:	74 49                	je     403ae8 <_Z4signiNSt7__cxx1112basic_stringIcSt11char_traitsIcESaIcEEE+0x28f>
  403a9f:	48 8d 95 30 f7 ff ff 	lea    -0x8d0(%rbp),%rdx
  403aa6:	48 8d 85 70 f7 ff ff 	lea    -0x890(%rbp),%rax
  403aad:	48 89 d6             	mov    %rdx,%rsi
  403ab0:	48 89 c7             	mov    %rax,%rdi
  403ab3:	e8 28 e5 ff ff       	callq  401fe0 <_ZNSt7__cxx1112basic_stringIcSt11char_traitsIcESaIcEEaSERKS4_@plt>
  403ab8:	eb 2e                	jmp    403ae8 <_Z4signiNSt7__cxx1112basic_stringIcSt11char_traitsIcESaIcEEE+0x28f>
  403aba:	80 bd 22 f7 ff ff 00 	cmpb   $0x0,-0x8de(%rbp)
  403ac1:	74 28                	je     403aeb <_Z4signiNSt7__cxx1112basic_stringIcSt11char_traitsIcESaIcEEE+0x292>
  403ac3:	48 8d 95 30 f7 ff ff 	lea    -0x8d0(%rbp),%rdx
  403aca:	48 8d 85 90 f7 ff ff 	lea    -0x870(%rbp),%rax
  403ad1:	48 89 d6             	mov    %rdx,%rsi
  403ad4:	48 89 c7             	mov    %rax,%rdi
  403ad7:	e8 04 e5 ff ff       	callq  401fe0 <_ZNSt7__cxx1112basic_stringIcSt11char_traitsIcESaIcEEaSERKS4_@plt>
  403adc:	c6 85 23 f7 ff ff 01 	movb   $0x1,-0x8dd(%rbp)
  403ae3:	eb 06                	jmp    403aeb <_Z4signiNSt7__cxx1112basic_stringIcSt11char_traitsIcESaIcEEE+0x292>
  403ae5:	90                   	nop
  403ae6:	eb 04                	jmp    403aec <_Z4signiNSt7__cxx1112basic_stringIcSt11char_traitsIcESaIcEEE+0x293>
  403ae8:	90                   	nop
  403ae9:	eb 01                	jmp    403aec <_Z4signiNSt7__cxx1112basic_stringIcSt11char_traitsIcESaIcEEE+0x293>
  403aeb:	90                   	nop
  403aec:	83 85 24 f7 ff ff 01 	addl   $0x1,-0x8dc(%rbp)
  403af3:	e9 e9 fe ff ff       	jmpq   4039e1 <_Z4signiNSt7__cxx1112basic_stringIcSt11char_traitsIcESaIcEEE+0x188>
  403af8:	0f b6 85 22 f7 ff ff 	movzbl -0x8de(%rbp),%eax
  403aff:	83 f0 01             	xor    $0x1,%eax
  403b02:	84 c0                	test   %al,%al
  403b04:	74 21                	je     403b27 <_Z4signiNSt7__cxx1112basic_stringIcSt11char_traitsIcESaIcEEE+0x2ce>
  403b06:	be 93 4b 40 00       	mov    $0x404b93,%esi
  403b0b:	bf a0 63 60 00       	mov    $0x6063a0,%edi
  403b10:	e8 2b e7 ff ff       	callq  402240 <_ZStlsISt11char_traitsIcEERSt13basic_ostreamIcT_ES5_PKc@plt>
  403b15:	be 40 21 40 00       	mov    $0x402140,%esi
  403b1a:	48 89 c7             	mov    %rax,%rdi
  403b1d:	e8 2e e7 ff ff       	callq  402250 <_ZNSolsEPFRSoS_E@plt>
  403b22:	e9 f1 01 00 00       	jmpq   403d18 <_Z4signiNSt7__cxx1112basic_stringIcSt11char_traitsIcESaIcEEE+0x4bf>
  403b27:	48 8d 8d 70 f7 ff ff 	lea    -0x890(%rbp),%rcx
  403b2e:	48 8d 85 d0 fb ff ff 	lea    -0x430(%rbp),%rax
  403b35:	ba 08 00 00 00       	mov    $0x8,%edx
  403b3a:	48 89 ce             	mov    %rcx,%rsi
  403b3d:	48 89 c7             	mov    %rax,%rdi
  403b40:	e8 9b e8 ff ff       	callq  4023e0 <_ZNSt14basic_ifstreamIcSt11char_traitsIcEEC1ERKNSt7__cxx1112basic_stringIcS1_SaIcEEESt13_Ios_Openmode@plt>
  403b45:	48 8d 8d 90 f7 ff ff 	lea    -0x870(%rbp),%rcx
  403b4c:	48 8d 85 e0 fd ff ff 	lea    -0x220(%rbp),%rax
  403b53:	ba 08 00 00 00       	mov    $0x8,%edx
  403b58:	48 89 ce             	mov    %rcx,%rsi
  403b5b:	48 89 c7             	mov    %rax,%rdi
  403b5e:	e8 7d e8 ff ff       	callq  4023e0 <_ZNSt14basic_ifstreamIcSt11char_traitsIcEEC1ERKNSt7__cxx1112basic_stringIcS1_SaIcEEESt13_Ios_Openmode@plt>
  403b63:	48 8d 85 90 f7 ff ff 	lea    -0x870(%rbp),%rax
  403b6a:	48 89 c6             	mov    %rax,%rsi
  403b6d:	bf a0 63 60 00       	mov    $0x6063a0,%edi
  403b72:	e8 69 e6 ff ff       	callq  4021e0 <_ZStlsIcSt11char_traitsIcESaIcEERSt13basic_ostreamIT_T0_ES7_RKNSt7__cxx1112basic_stringIS4_S5_T1_EE@plt>
  403b77:	be 40 21 40 00       	mov    $0x402140,%esi
  403b7c:	48 89 c7             	mov    %rax,%rdi
  403b7f:	e8 cc e6 ff ff       	callq  402250 <_ZNSolsEPFRSoS_E@plt>
  403b84:	48 8d 85 d0 fb ff ff 	lea    -0x430(%rbp),%rax
  403b8b:	48 89 c7             	mov    %rax,%rdi
  403b8e:	e8 3d e8 ff ff       	callq  4023d0 <_ZNSt14basic_ifstreamIcSt11char_traitsIcEE7is_openEv@plt>
  403b93:	83 f0 01             	xor    $0x1,%eax
  403b96:	84 c0                	test   %al,%al
  403b98:	74 21                	je     403bbb <_Z4signiNSt7__cxx1112basic_stringIcSt11char_traitsIcESaIcEEE+0x362>
  403b9a:	be a0 4b 40 00       	mov    $0x404ba0,%esi
  403b9f:	bf a0 63 60 00       	mov    $0x6063a0,%edi
  403ba4:	e8 97 e6 ff ff       	callq  402240 <_ZStlsISt11char_traitsIcEERSt13basic_ostreamIcT_ES5_PKc@plt>
  403ba9:	be 40 21 40 00       	mov    $0x402140,%esi
  403bae:	48 89 c7             	mov    %rax,%rdi
  403bb1:	e8 9a e6 ff ff       	callq  402250 <_ZNSolsEPFRSoS_E@plt>
  403bb6:	e9 3f 01 00 00       	jmpq   403cfa <_Z4signiNSt7__cxx1112basic_stringIcSt11char_traitsIcESaIcEEE+0x4a1>
  403bbb:	48 8d 85 21 f7 ff ff 	lea    -0x8df(%rbp),%rax
  403bc2:	48 89 c7             	mov    %rax,%rdi
  403bc5:	e8 96 e8 ff ff       	callq  402460 <_ZNSaIcEC1Ev@plt>
  403bca:	48 8d 95 21 f7 ff ff 	lea    -0x8df(%rbp),%rdx
  403bd1:	48 8d 85 b0 f7 ff ff 	lea    -0x850(%rbp),%rax
  403bd8:	be 13 4b 40 00       	mov    $0x404b13,%esi
  403bdd:	48 89 c7             	mov    %rax,%rdi
  403be0:	e8 0b e7 ff ff       	callq  4022f0 <_ZNSt7__cxx1112basic_stringIcSt11char_traitsIcESaIcEEC1EPKcRKS3_@plt>
  403be5:	48 8d 85 21 f7 ff ff 	lea    -0x8df(%rbp),%rax
  403bec:	48 89 c7             	mov    %rax,%rdi
  403bef:	e8 6c e6 ff ff       	callq  402260 <_ZNSaIcED1Ev@plt>
  403bf4:	48 8d 85 21 f7 ff ff 	lea    -0x8df(%rbp),%rax
  403bfb:	48 89 c7             	mov    %rax,%rdi
  403bfe:	e8 5d e8 ff ff       	callq  402460 <_ZNSaIcEC1Ev@plt>
  403c03:	48 8d 95 21 f7 ff ff 	lea    -0x8df(%rbp),%rdx
  403c0a:	48 8d 85 d0 f7 ff ff 	lea    -0x830(%rbp),%rax
  403c11:	be 13 4b 40 00       	mov    $0x404b13,%esi
  403c16:	48 89 c7             	mov    %rax,%rdi
  403c19:	e8 d2 e6 ff ff       	callq  4022f0 <_ZNSt7__cxx1112basic_stringIcSt11char_traitsIcESaIcEEC1EPKcRKS3_@plt>
  403c1e:	48 8d 85 21 f7 ff ff 	lea    -0x8df(%rbp),%rax
  403c25:	48 89 c7             	mov    %rax,%rdi
  403c28:	e8 33 e6 ff ff       	callq  402260 <_ZNSaIcED1Ev@plt>
  403c2d:	48 8d 95 b0 f7 ff ff 	lea    -0x850(%rbp),%rdx
  403c34:	48 8d 85 d0 fb ff ff 	lea    -0x430(%rbp),%rax
  403c3b:	48 89 d6             	mov    %rdx,%rsi
  403c3e:	48 89 c7             	mov    %rax,%rdi
  403c41:	e8 0a e4 ff ff       	callq  402050 <_ZSt7getlineIcSt11char_traitsIcESaIcEERSt13basic_istreamIT_T0_ES7_RNSt7__cxx1112basic_stringIS4_S5_T1_EE@plt>
  403c46:	48 8d 95 d0 f7 ff ff 	lea    -0x830(%rbp),%rdx
  403c4d:	48 8d 85 d0 fb ff ff 	lea    -0x430(%rbp),%rax
  403c54:	48 89 d6             	mov    %rdx,%rsi
  403c57:	48 89 c7             	mov    %rax,%rdi
  403c5a:	e8 f1 e3 ff ff       	callq  402050 <_ZSt7getlineIcSt11char_traitsIcESaIcEERSt13basic_istreamIT_T0_ES7_RNSt7__cxx1112basic_stringIS4_S5_T1_EE@plt>
  403c5f:	48 8d 85 d0 fb ff ff 	lea    -0x430(%rbp),%rax
  403c66:	48 89 c7             	mov    %rax,%rdi
  403c69:	e8 02 e4 ff ff       	callq  402070 <_ZNSt14basic_ifstreamIcSt11char_traitsIcEE5closeEv@plt>
  403c6e:	48 8d 95 d0 f7 ff ff 	lea    -0x830(%rbp),%rdx
  403c75:	48 8d 85 10 f8 ff ff 	lea    -0x7f0(%rbp),%rax
  403c7c:	48 89 d6             	mov    %rdx,%rsi
  403c7f:	48 89 c7             	mov    %rax,%rdi
  403c82:	e8 99 e4 ff ff       	callq  402120 <_ZNSt7__cxx1112basic_stringIcSt11char_traitsIcESaIcEEC1ERKS4_@plt>
  403c87:	48 8d 95 b0 f7 ff ff 	lea    -0x850(%rbp),%rdx
  403c8e:	48 8d 85 f0 f7 ff ff 	lea    -0x810(%rbp),%rax
  403c95:	48 89 d6             	mov    %rdx,%rsi
  403c98:	48 89 c7             	mov    %rax,%rdi
  403c9b:	e8 80 e4 ff ff       	callq  402120 <_ZNSt7__cxx1112basic_stringIcSt11char_traitsIcESaIcEEC1ERKS4_@plt>
  403ca0:	48 8d 95 10 f8 ff ff 	lea    -0x7f0(%rbp),%rdx
  403ca7:	48 8d 8d f0 f7 ff ff 	lea    -0x810(%rbp),%rcx
  403cae:	8b 85 1c f7 ff ff    	mov    -0x8e4(%rbp),%eax
  403cb4:	48 89 ce             	mov    %rcx,%rsi
  403cb7:	89 c7                	mov    %eax,%edi
  403cb9:	e8 94 f7 ff ff       	callq  403452 <_Z9runsocketiNSt7__cxx1112basic_stringIcSt11char_traitsIcESaIcEEES4_>
  403cbe:	48 8d 85 f0 f7 ff ff 	lea    -0x810(%rbp),%rax
  403cc5:	48 89 c7             	mov    %rax,%rdi
  403cc8:	e8 93 e4 ff ff       	callq  402160 <_ZNSt7__cxx1112basic_stringIcSt11char_traitsIcESaIcEED1Ev@plt>
  403ccd:	48 8d 85 10 f8 ff ff 	lea    -0x7f0(%rbp),%rax
  403cd4:	48 89 c7             	mov    %rax,%rdi
  403cd7:	e8 84 e4 ff ff       	callq  402160 <_ZNSt7__cxx1112basic_stringIcSt11char_traitsIcESaIcEED1Ev@plt>
  403cdc:	48 8d 85 d0 f7 ff ff 	lea    -0x830(%rbp),%rax
  403ce3:	48 89 c7             	mov    %rax,%rdi
  403ce6:	e8 75 e4 ff ff       	callq  402160 <_ZNSt7__cxx1112basic_stringIcSt11char_traitsIcESaIcEED1Ev@plt>
  403ceb:	48 8d 85 b0 f7 ff ff 	lea    -0x850(%rbp),%rax
  403cf2:	48 89 c7             	mov    %rax,%rdi
  403cf5:	e8 66 e4 ff ff       	callq  402160 <_ZNSt7__cxx1112basic_stringIcSt11char_traitsIcESaIcEED1Ev@plt>
  403cfa:	48 8d 85 e0 fd ff ff 	lea    -0x220(%rbp),%rax
  403d01:	48 89 c7             	mov    %rax,%rdi
  403d04:	e8 97 e3 ff ff       	callq  4020a0 <_ZNSt14basic_ifstreamIcSt11char_traitsIcEED1Ev@plt>
  403d09:	48 8d 85 d0 fb ff ff 	lea    -0x430(%rbp),%rax
  403d10:	48 89 c7             	mov    %rax,%rdi
  403d13:	e8 88 e3 ff ff       	callq  4020a0 <_ZNSt14basic_ifstreamIcSt11char_traitsIcEED1Ev@plt>
  403d18:	48 8d 85 90 f7 ff ff 	lea    -0x870(%rbp),%rax
  403d1f:	48 89 c7             	mov    %rax,%rdi
  403d22:	e8 39 e4 ff ff       	callq  402160 <_ZNSt7__cxx1112basic_stringIcSt11char_traitsIcESaIcEED1Ev@plt>
  403d27:	48 8d 85 70 f7 ff ff 	lea    -0x890(%rbp),%rax
  403d2e:	48 89 c7             	mov    %rax,%rdi
  403d31:	e8 2a e4 ff ff       	callq  402160 <_ZNSt7__cxx1112basic_stringIcSt11char_traitsIcESaIcEED1Ev@plt>
  403d36:	48 8d 85 50 f7 ff ff 	lea    -0x8b0(%rbp),%rax
  403d3d:	48 89 c7             	mov    %rax,%rdi
  403d40:	e8 1b e4 ff ff       	callq  402160 <_ZNSt7__cxx1112basic_stringIcSt11char_traitsIcESaIcEED1Ev@plt>
  403d45:	48 8d 85 30 f8 ff ff 	lea    -0x7d0(%rbp),%rax
  403d4c:	48 89 c7             	mov    %rax,%rdi
  403d4f:	e8 3c e4 ff ff       	callq  402190 <_ZNSt7__cxx1118basic_stringstreamIcSt11char_traitsIcESaIcEED1Ev@plt>
  403d54:	eb 1c                	jmp    403d72 <_Z4signiNSt7__cxx1112basic_stringIcSt11char_traitsIcESaIcEEE+0x519>
  403d56:	be c4 4b 40 00       	mov    $0x404bc4,%esi
  403d5b:	bf a0 63 60 00       	mov    $0x6063a0,%edi
  403d60:	e8 db e4 ff ff       	callq  402240 <_ZStlsISt11char_traitsIcEERSt13basic_ostreamIcT_ES5_PKc@plt>
  403d65:	be 40 21 40 00       	mov    $0x402140,%esi
  403d6a:	48 89 c7             	mov    %rax,%rdi
  403d6d:	e8 de e4 ff ff       	callq  402250 <_ZNSolsEPFRSoS_E@plt>
  403d72:	48 8d 85 30 f7 ff ff 	lea    -0x8d0(%rbp),%rax
  403d79:	48 89 c7             	mov    %rax,%rdi
  403d7c:	e8 df e3 ff ff       	callq  402160 <_ZNSt7__cxx1112basic_stringIcSt11char_traitsIcESaIcEED1Ev@plt>
  403d81:	48 8d 85 c0 f9 ff ff 	lea    -0x640(%rbp),%rax
  403d88:	48 89 c7             	mov    %rax,%rdi
  403d8b:	e8 10 e3 ff ff       	callq  4020a0 <_ZNSt14basic_ifstreamIcSt11char_traitsIcEED1Ev@plt>
  403d90:	90                   	nop
  403d91:	48 8b 45 e8          	mov    -0x18(%rbp),%rax
  403d95:	64 48 33 04 25 28 00 	xor    %fs:0x28,%rax
  403d9c:	00 00 
  403d9e:	0f 84 4a 01 00 00    	je     403eee <_Z4signiNSt7__cxx1112basic_stringIcSt11char_traitsIcESaIcEEE+0x695>
  403da4:	e9 40 01 00 00       	jmpq   403ee9 <_Z4signiNSt7__cxx1112basic_stringIcSt11char_traitsIcESaIcEEE+0x690>
  403da9:	48 89 c3             	mov    %rax,%rbx
  403dac:	48 8d 85 21 f7 ff ff 	lea    -0x8df(%rbp),%rax
  403db3:	48 89 c7             	mov    %rax,%rdi
  403db6:	e8 a5 e4 ff ff       	callq  402260 <_ZNSaIcED1Ev@plt>
  403dbb:	e9 d8 00 00 00       	jmpq   403e98 <_Z4signiNSt7__cxx1112basic_stringIcSt11char_traitsIcESaIcEEE+0x63f>
  403dc0:	48 89 c3             	mov    %rax,%rbx
  403dc3:	48 8d 85 21 f7 ff ff 	lea    -0x8df(%rbp),%rax
  403dca:	48 89 c7             	mov    %rax,%rdi
  403dcd:	e8 8e e4 ff ff       	callq  402260 <_ZNSaIcED1Ev@plt>
  403dd2:	e9 ad 00 00 00       	jmpq   403e84 <_Z4signiNSt7__cxx1112basic_stringIcSt11char_traitsIcESaIcEEE+0x62b>
  403dd7:	48 89 c3             	mov    %rax,%rbx
  403dda:	48 8d 85 21 f7 ff ff 	lea    -0x8df(%rbp),%rax
  403de1:	48 89 c7             	mov    %rax,%rdi
  403de4:	e8 77 e4 ff ff       	callq  402260 <_ZNSaIcED1Ev@plt>
  403de9:	eb 62                	jmp    403e4d <_Z4signiNSt7__cxx1112basic_stringIcSt11char_traitsIcESaIcEEE+0x5f4>
  403deb:	48 89 c3             	mov    %rax,%rbx
  403dee:	48 8d 85 21 f7 ff ff 	lea    -0x8df(%rbp),%rax
  403df5:	48 89 c7             	mov    %rax,%rdi
  403df8:	e8 63 e4 ff ff       	callq  402260 <_ZNSaIcED1Ev@plt>
  403dfd:	eb 3a                	jmp    403e39 <_Z4signiNSt7__cxx1112basic_stringIcSt11char_traitsIcESaIcEEE+0x5e0>
  403dff:	48 89 c3             	mov    %rax,%rbx
  403e02:	48 8d 85 f0 f7 ff ff 	lea    -0x810(%rbp),%rax
  403e09:	48 89 c7             	mov    %rax,%rdi
  403e0c:	e8 4f e3 ff ff       	callq  402160 <_ZNSt7__cxx1112basic_stringIcSt11char_traitsIcESaIcEED1Ev@plt>
  403e11:	eb 03                	jmp    403e16 <_Z4signiNSt7__cxx1112basic_stringIcSt11char_traitsIcESaIcEEE+0x5bd>
  403e13:	48 89 c3             	mov    %rax,%rbx
  403e16:	48 8d 85 10 f8 ff ff 	lea    -0x7f0(%rbp),%rax
  403e1d:	48 89 c7             	mov    %rax,%rdi
  403e20:	e8 3b e3 ff ff       	callq  402160 <_ZNSt7__cxx1112basic_stringIcSt11char_traitsIcESaIcEED1Ev@plt>
  403e25:	eb 03                	jmp    403e2a <_Z4signiNSt7__cxx1112basic_stringIcSt11char_traitsIcESaIcEEE+0x5d1>
  403e27:	48 89 c3             	mov    %rax,%rbx
  403e2a:	48 8d 85 d0 f7 ff ff 	lea    -0x830(%rbp),%rax
  403e31:	48 89 c7             	mov    %rax,%rdi
  403e34:	e8 27 e3 ff ff       	callq  402160 <_ZNSt7__cxx1112basic_stringIcSt11char_traitsIcESaIcEED1Ev@plt>
  403e39:	48 8d 85 b0 f7 ff ff 	lea    -0x850(%rbp),%rax
  403e40:	48 89 c7             	mov    %rax,%rdi
  403e43:	e8 18 e3 ff ff       	callq  402160 <_ZNSt7__cxx1112basic_stringIcSt11char_traitsIcESaIcEED1Ev@plt>
  403e48:	eb 03                	jmp    403e4d <_Z4signiNSt7__cxx1112basic_stringIcSt11char_traitsIcESaIcEEE+0x5f4>
  403e4a:	48 89 c3             	mov    %rax,%rbx
  403e4d:	48 8d 85 e0 fd ff ff 	lea    -0x220(%rbp),%rax
  403e54:	48 89 c7             	mov    %rax,%rdi
  403e57:	e8 44 e2 ff ff       	callq  4020a0 <_ZNSt14basic_ifstreamIcSt11char_traitsIcEED1Ev@plt>
  403e5c:	eb 03                	jmp    403e61 <_Z4signiNSt7__cxx1112basic_stringIcSt11char_traitsIcESaIcEEE+0x608>
  403e5e:	48 89 c3             	mov    %rax,%rbx
  403e61:	48 8d 85 d0 fb ff ff 	lea    -0x430(%rbp),%rax
  403e68:	48 89 c7             	mov    %rax,%rdi
  403e6b:	e8 30 e2 ff ff       	callq  4020a0 <_ZNSt14basic_ifstreamIcSt11char_traitsIcEED1Ev@plt>
  403e70:	eb 03                	jmp    403e75 <_Z4signiNSt7__cxx1112basic_stringIcSt11char_traitsIcESaIcEEE+0x61c>
  403e72:	48 89 c3             	mov    %rax,%rbx
  403e75:	48 8d 85 90 f7 ff ff 	lea    -0x870(%rbp),%rax
  403e7c:	48 89 c7             	mov    %rax,%rdi
  403e7f:	e8 dc e2 ff ff       	callq  402160 <_ZNSt7__cxx1112basic_stringIcSt11char_traitsIcESaIcEED1Ev@plt>
  403e84:	48 8d 85 70 f7 ff ff 	lea    -0x890(%rbp),%rax
  403e8b:	48 89 c7             	mov    %rax,%rdi
  403e8e:	e8 cd e2 ff ff       	callq  402160 <_ZNSt7__cxx1112basic_stringIcSt11char_traitsIcESaIcEED1Ev@plt>
  403e93:	eb 03                	jmp    403e98 <_Z4signiNSt7__cxx1112basic_stringIcSt11char_traitsIcESaIcEEE+0x63f>
  403e95:	48 89 c3             	mov    %rax,%rbx
  403e98:	48 8d 85 50 f7 ff ff 	lea    -0x8b0(%rbp),%rax
  403e9f:	48 89 c7             	mov    %rax,%rdi
  403ea2:	e8 b9 e2 ff ff       	callq  402160 <_ZNSt7__cxx1112basic_stringIcSt11char_traitsIcESaIcEED1Ev@plt>
  403ea7:	eb 03                	jmp    403eac <_Z4signiNSt7__cxx1112basic_stringIcSt11char_traitsIcESaIcEEE+0x653>
  403ea9:	48 89 c3             	mov    %rax,%rbx
  403eac:	48 8d 85 30 f8 ff ff 	lea    -0x7d0(%rbp),%rax
  403eb3:	48 89 c7             	mov    %rax,%rdi
  403eb6:	e8 d5 e2 ff ff       	callq  402190 <_ZNSt7__cxx1118basic_stringstreamIcSt11char_traitsIcESaIcEED1Ev@plt>
  403ebb:	eb 03                	jmp    403ec0 <_Z4signiNSt7__cxx1112basic_stringIcSt11char_traitsIcESaIcEEE+0x667>
  403ebd:	48 89 c3             	mov    %rax,%rbx
  403ec0:	48 8d 85 30 f7 ff ff 	lea    -0x8d0(%rbp),%rax
  403ec7:	48 89 c7             	mov    %rax,%rdi
  403eca:	e8 91 e2 ff ff       	callq  402160 <_ZNSt7__cxx1112basic_stringIcSt11char_traitsIcESaIcEED1Ev@plt>
  403ecf:	48 8d 85 c0 f9 ff ff 	lea    -0x640(%rbp),%rax
  403ed6:	48 89 c7             	mov    %rax,%rdi
  403ed9:	e8 c2 e1 ff ff       	callq  4020a0 <_ZNSt14basic_ifstreamIcSt11char_traitsIcEED1Ev@plt>
  403ede:	48 89 d8             	mov    %rbx,%rax
  403ee1:	48 89 c7             	mov    %rax,%rdi
  403ee4:	e8 67 e5 ff ff       	callq  402450 <_Unwind_Resume@plt>
  403ee9:	e8 92 e3 ff ff       	callq  402280 <__stack_chk_fail@plt>
  403eee:	48 81 c4 e8 08 00 00 	add    $0x8e8,%rsp
  403ef5:	5b                   	pop    %rbx
  403ef6:	5d                   	pop    %rbp
  403ef7:	c3                   	retq   

0000000000403ef8 <main>:
  403ef8:	55                   	push   %rbp
  403ef9:	48 89 e5             	mov    %rsp,%rbp
  403efc:	41 54                	push   %r12
  403efe:	53                   	push   %rbx
  403eff:	48 83 ec 70          	sub    $0x70,%rsp
  403f03:	89 7d 8c             	mov    %edi,-0x74(%rbp)
  403f06:	48 89 75 80          	mov    %rsi,-0x80(%rbp)
  403f0a:	64 48 8b 04 25 28 00 	mov    %fs:0x28,%rax
  403f11:	00 00 
  403f13:	48 89 45 e8          	mov    %rax,-0x18(%rbp)
  403f17:	31 c0                	xor    %eax,%eax
  403f19:	83 7d 8c 01          	cmpl   $0x1,-0x74(%rbp)
  403f1d:	7f 21                	jg     403f40 <main+0x48>
  403f1f:	be e0 62 60 00       	mov    $0x6062e0,%esi
  403f24:	bf a0 63 60 00       	mov    $0x6063a0,%edi
  403f29:	e8 12 e3 ff ff       	callq  402240 <_ZStlsISt11char_traitsIcEERSt13basic_ostreamIcT_ES5_PKc@plt>
  403f2e:	be 40 21 40 00       	mov    $0x402140,%esi
  403f33:	48 89 c7             	mov    %rax,%rdi
  403f36:	e8 15 e3 ff ff       	callq  402250 <_ZNSolsEPFRSoS_E@plt>
  403f3b:	e9 9c 01 00 00       	jmpq   4040dc <main+0x1e4>
  403f40:	48 8b 45 80          	mov    -0x80(%rbp),%rax
  403f44:	48 83 c0 08          	add    $0x8,%rax
  403f48:	48 8b 00             	mov    (%rax),%rax
  403f4b:	be d5 4b 40 00       	mov    $0x404bd5,%esi
  403f50:	48 89 c7             	mov    %rax,%rdi
  403f53:	e8 d8 e3 ff ff       	callq  402330 <strcmp@plt>
  403f58:	85 c0                	test   %eax,%eax
  403f5a:	75 62                	jne    403fbe <main+0xc6>
  403f5c:	83 7d 8c 05          	cmpl   $0x5,-0x74(%rbp)
  403f60:	75 3b                	jne    403f9d <main+0xa5>
  403f62:	48 8b 45 80          	mov    -0x80(%rbp),%rax
  403f66:	48 83 c0 20          	add    $0x20,%rax
  403f6a:	4c 8b 20             	mov    (%rax),%r12
  403f6d:	48 8b 45 80          	mov    -0x80(%rbp),%rax
  403f71:	48 83 c0 18          	add    $0x18,%rax
  403f75:	48 8b 18             	mov    (%rax),%rbx
  403f78:	48 8b 45 80          	mov    -0x80(%rbp),%rax
  403f7c:	48 83 c0 10          	add    $0x10,%rax
  403f80:	48 8b 00             	mov    (%rax),%rax
  403f83:	48 89 c7             	mov    %rax,%rdi
  403f86:	e8 35 e4 ff ff       	callq  4023c0 <atoi@plt>
  403f8b:	4c 89 e2             	mov    %r12,%rdx
  403f8e:	48 89 de             	mov    %rbx,%rsi
  403f91:	89 c7                	mov    %eax,%edi
  403f93:	e8 31 ee ff ff       	callq  402dc9 <_Z5setupiPcS_>
  403f98:	e9 3f 01 00 00       	jmpq   4040dc <main+0x1e4>
  403f9d:	be e0 62 60 00       	mov    $0x6062e0,%esi
  403fa2:	bf a0 63 60 00       	mov    $0x6063a0,%edi
  403fa7:	e8 94 e2 ff ff       	callq  402240 <_ZStlsISt11char_traitsIcEERSt13basic_ostreamIcT_ES5_PKc@plt>
  403fac:	be 40 21 40 00       	mov    $0x402140,%esi
  403fb1:	48 89 c7             	mov    %rax,%rdi
  403fb4:	e8 97 e2 ff ff       	callq  402250 <_ZNSolsEPFRSoS_E@plt>
  403fb9:	e9 1e 01 00 00       	jmpq   4040dc <main+0x1e4>
  403fbe:	48 8b 45 80          	mov    -0x80(%rbp),%rax
  403fc2:	48 83 c0 08          	add    $0x8,%rax
  403fc6:	48 8b 00             	mov    (%rax),%rax
  403fc9:	be db 4b 40 00       	mov    $0x404bdb,%esi
  403fce:	48 89 c7             	mov    %rax,%rdi
  403fd1:	e8 5a e3 ff ff       	callq  402330 <strcmp@plt>
  403fd6:	85 c0                	test   %eax,%eax
  403fd8:	0f 85 e2 00 00 00    	jne    4040c0 <main+0x1c8>
  403fde:	83 7d 8c 04          	cmpl   $0x4,-0x74(%rbp)
  403fe2:	0f 85 ba 00 00 00    	jne    4040a2 <main+0x1aa>
  403fe8:	48 8d 45 9b          	lea    -0x65(%rbp),%rax
  403fec:	48 89 c7             	mov    %rax,%rdi
  403fef:	e8 6c e4 ff ff       	callq  402460 <_ZNSaIcEC1Ev@plt>
  403ff4:	48 8b 45 80          	mov    -0x80(%rbp),%rax
  403ff8:	48 83 c0 10          	add    $0x10,%rax
  403ffc:	48 8b 08             	mov    (%rax),%rcx
  403fff:	48 8d 55 9b          	lea    -0x65(%rbp),%rdx
  404003:	48 8d 45 a0          	lea    -0x60(%rbp),%rax
  404007:	48 89 ce             	mov    %rcx,%rsi
  40400a:	48 89 c7             	mov    %rax,%rdi
  40400d:	e8 de e2 ff ff       	callq  4022f0 <_ZNSt7__cxx1112basic_stringIcSt11char_traitsIcESaIcEEC1EPKcRKS3_@plt>
  404012:	48 8d 45 9b          	lea    -0x65(%rbp),%rax
  404016:	48 89 c7             	mov    %rax,%rdi
  404019:	e8 42 e2 ff ff       	callq  402260 <_ZNSaIcED1Ev@plt>
  40401e:	48 8b 45 80          	mov    -0x80(%rbp),%rax
  404022:	48 83 c0 18          	add    $0x18,%rax
  404026:	48 8b 00             	mov    (%rax),%rax
  404029:	48 89 c7             	mov    %rax,%rdi
  40402c:	e8 8f e3 ff ff       	callq  4023c0 <atoi@plt>
  404031:	89 45 9c             	mov    %eax,-0x64(%rbp)
  404034:	81 7d 9c 00 04 00 00 	cmpl   $0x400,-0x64(%rbp)
  40403b:	7e 3b                	jle    404078 <main+0x180>
  40403d:	81 7d 9c ff ff 00 00 	cmpl   $0xffff,-0x64(%rbp)
  404044:	7f 32                	jg     404078 <main+0x180>
  404046:	48 8d 55 a0          	lea    -0x60(%rbp),%rdx
  40404a:	48 8d 45 c0          	lea    -0x40(%rbp),%rax
  40404e:	48 89 d6             	mov    %rdx,%rsi
  404051:	48 89 c7             	mov    %rax,%rdi
  404054:	e8 c7 e0 ff ff       	callq  402120 <_ZNSt7__cxx1112basic_stringIcSt11char_traitsIcESaIcEEC1ERKS4_@plt>
  404059:	48 8d 55 c0          	lea    -0x40(%rbp),%rdx
  40405d:	8b 45 9c             	mov    -0x64(%rbp),%eax
  404060:	48 89 d6             	mov    %rdx,%rsi
  404063:	89 c7                	mov    %eax,%edi
  404065:	e8 ef f7 ff ff       	callq  403859 <_Z4signiNSt7__cxx1112basic_stringIcSt11char_traitsIcESaIcEEE>
  40406a:	48 8d 45 c0          	lea    -0x40(%rbp),%rax
  40406e:	48 89 c7             	mov    %rax,%rdi
  404071:	e8 ea e0 ff ff       	callq  402160 <_ZNSt7__cxx1112basic_stringIcSt11char_traitsIcESaIcEED1Ev@plt>
  404076:	eb 1c                	jmp    404094 <main+0x19c>
  404078:	be e0 4b 40 00       	mov    $0x404be0,%esi
  40407d:	bf a0 63 60 00       	mov    $0x6063a0,%edi
  404082:	e8 b9 e1 ff ff       	callq  402240 <_ZStlsISt11char_traitsIcEERSt13basic_ostreamIcT_ES5_PKc@plt>
  404087:	be 40 21 40 00       	mov    $0x402140,%esi
  40408c:	48 89 c7             	mov    %rax,%rdi
  40408f:	e8 bc e1 ff ff       	callq  402250 <_ZNSolsEPFRSoS_E@plt>
  404094:	48 8d 45 a0          	lea    -0x60(%rbp),%rax
  404098:	48 89 c7             	mov    %rax,%rdi
  40409b:	e8 c0 e0 ff ff       	callq  402160 <_ZNSt7__cxx1112basic_stringIcSt11char_traitsIcESaIcEED1Ev@plt>
  4040a0:	eb 3a                	jmp    4040dc <main+0x1e4>
  4040a2:	be e0 62 60 00       	mov    $0x6062e0,%esi
  4040a7:	bf a0 63 60 00       	mov    $0x6063a0,%edi
  4040ac:	e8 8f e1 ff ff       	callq  402240 <_ZStlsISt11char_traitsIcEERSt13basic_ostreamIcT_ES5_PKc@plt>
  4040b1:	be 40 21 40 00       	mov    $0x402140,%esi
  4040b6:	48 89 c7             	mov    %rax,%rdi
  4040b9:	e8 92 e1 ff ff       	callq  402250 <_ZNSolsEPFRSoS_E@plt>
  4040be:	eb 1c                	jmp    4040dc <main+0x1e4>
  4040c0:	be e0 62 60 00       	mov    $0x6062e0,%esi
  4040c5:	bf a0 63 60 00       	mov    $0x6063a0,%edi
  4040ca:	e8 71 e1 ff ff       	callq  402240 <_ZStlsISt11char_traitsIcEERSt13basic_ostreamIcT_ES5_PKc@plt>
  4040cf:	be 40 21 40 00       	mov    $0x402140,%esi
  4040d4:	48 89 c7             	mov    %rax,%rdi
  4040d7:	e8 74 e1 ff ff       	callq  402250 <_ZNSolsEPFRSoS_E@plt>
  4040dc:	b8 00 00 00 00       	mov    $0x0,%eax
  4040e1:	48 8b 4d e8          	mov    -0x18(%rbp),%rcx
  4040e5:	64 48 33 0c 25 28 00 	xor    %fs:0x28,%rcx
  4040ec:	00 00 
  4040ee:	74 4c                	je     40413c <main+0x244>
  4040f0:	eb 45                	jmp    404137 <main+0x23f>
  4040f2:	48 89 c3             	mov    %rax,%rbx
  4040f5:	48 8d 45 9b          	lea    -0x65(%rbp),%rax
  4040f9:	48 89 c7             	mov    %rax,%rdi
  4040fc:	e8 5f e1 ff ff       	callq  402260 <_ZNSaIcED1Ev@plt>
  404101:	48 89 d8             	mov    %rbx,%rax
  404104:	48 89 c7             	mov    %rax,%rdi
  404107:	e8 44 e3 ff ff       	callq  402450 <_Unwind_Resume@plt>
  40410c:	48 89 c3             	mov    %rax,%rbx
  40410f:	48 8d 45 c0          	lea    -0x40(%rbp),%rax
  404113:	48 89 c7             	mov    %rax,%rdi
  404116:	e8 45 e0 ff ff       	callq  402160 <_ZNSt7__cxx1112basic_stringIcSt11char_traitsIcESaIcEED1Ev@plt>
  40411b:	eb 03                	jmp    404120 <main+0x228>
  40411d:	48 89 c3             	mov    %rax,%rbx
  404120:	48 8d 45 a0          	lea    -0x60(%rbp),%rax
  404124:	48 89 c7             	mov    %rax,%rdi
  404127:	e8 34 e0 ff ff       	callq  402160 <_ZNSt7__cxx1112basic_stringIcSt11char_traitsIcESaIcEED1Ev@plt>
  40412c:	48 89 d8             	mov    %rbx,%rax
  40412f:	48 89 c7             	mov    %rax,%rdi
  404132:	e8 19 e3 ff ff       	callq  402450 <_Unwind_Resume@plt>
  404137:	e8 44 e1 ff ff       	callq  402280 <__stack_chk_fail@plt>
  40413c:	48 83 c4 70          	add    $0x70,%rsp
  404140:	5b                   	pop    %rbx
  404141:	41 5c                	pop    %r12
  404143:	5d                   	pop    %rbp
  404144:	c3                   	retq   

0000000000404145 <_Z41__static_initialization_and_destruction_0ii>:
  404145:	55                   	push   %rbp
  404146:	48 89 e5             	mov    %rsp,%rbp
  404149:	48 83 ec 10          	sub    $0x10,%rsp
  40414d:	89 7d fc             	mov    %edi,-0x4(%rbp)
  404150:	89 75 f8             	mov    %esi,-0x8(%rbp)
  404153:	83 7d fc 01          	cmpl   $0x1,-0x4(%rbp)
  404157:	75 27                	jne    404180 <_Z41__static_initialization_and_destruction_0ii+0x3b>
  404159:	81 7d f8 ff ff 00 00 	cmpl   $0xffff,-0x8(%rbp)
  404160:	75 1e                	jne    404180 <_Z41__static_initialization_and_destruction_0ii+0x3b>
  404162:	bf b1 64 60 00       	mov    $0x6064b1,%edi
  404167:	e8 44 e2 ff ff       	callq  4023b0 <_ZNSt8ios_base4InitC1Ev@plt>
  40416c:	ba a8 62 60 00       	mov    $0x6062a8,%edx
  404171:	be b1 64 60 00       	mov    $0x6064b1,%esi
  404176:	bf b0 24 40 00       	mov    $0x4024b0,%edi
  40417b:	e8 50 e0 ff ff       	callq  4021d0 <__cxa_atexit@plt>
  404180:	90                   	nop
  404181:	c9                   	leaveq 
  404182:	c3                   	retq   

0000000000404183 <_GLOBAL__sub_I__Z8halfbytec>:
  404183:	55                   	push   %rbp
  404184:	48 89 e5             	mov    %rsp,%rbp
  404187:	be ff ff 00 00       	mov    $0xffff,%esi
  40418c:	bf 01 00 00 00       	mov    $0x1,%edi
  404191:	e8 af ff ff ff       	callq  404145 <_Z41__static_initialization_and_destruction_0ii>
  404196:	5d                   	pop    %rbp
  404197:	c3                   	retq   

0000000000404198 <_ZNSt11char_traitsIcE7compareEPKcS2_m>:
  404198:	55                   	push   %rbp
  404199:	48 89 e5             	mov    %rsp,%rbp
  40419c:	48 83 ec 20          	sub    $0x20,%rsp
  4041a0:	48 89 7d f8          	mov    %rdi,-0x8(%rbp)
  4041a4:	48 89 75 f0          	mov    %rsi,-0x10(%rbp)
  4041a8:	48 89 55 e8          	mov    %rdx,-0x18(%rbp)
  4041ac:	48 83 7d e8 00       	cmpq   $0x0,-0x18(%rbp)
  4041b1:	75 07                	jne    4041ba <_ZNSt11char_traitsIcE7compareEPKcS2_m+0x22>
  4041b3:	b8 00 00 00 00       	mov    $0x0,%eax
  4041b8:	eb 17                	jmp    4041d1 <_ZNSt11char_traitsIcE7compareEPKcS2_m+0x39>
  4041ba:	48 8b 55 e8          	mov    -0x18(%rbp),%rdx
  4041be:	48 8b 4d f0          	mov    -0x10(%rbp),%rcx
  4041c2:	48 8b 45 f8          	mov    -0x8(%rbp),%rax
  4041c6:	48 89 ce             	mov    %rcx,%rsi
  4041c9:	48 89 c7             	mov    %rax,%rdi
  4041cc:	e8 5f df ff ff       	callq  402130 <memcmp@plt>
  4041d1:	c9                   	leaveq 
  4041d2:	c3                   	retq   

00000000004041d3 <_ZNSt10_Hash_impl4hashEPKvmm>:
  4041d3:	55                   	push   %rbp
  4041d4:	48 89 e5             	mov    %rsp,%rbp
  4041d7:	48 83 ec 20          	sub    $0x20,%rsp
  4041db:	48 89 7d f8          	mov    %rdi,-0x8(%rbp)
  4041df:	48 89 75 f0          	mov    %rsi,-0x10(%rbp)
  4041e3:	48 89 55 e8          	mov    %rdx,-0x18(%rbp)
  4041e7:	48 8b 55 e8          	mov    -0x18(%rbp),%rdx
  4041eb:	48 8b 4d f0          	mov    -0x10(%rbp),%rcx
  4041ef:	48 8b 45 f8          	mov    -0x8(%rbp),%rax
  4041f3:	48 89 ce             	mov    %rcx,%rsi
  4041f6:	48 89 c7             	mov    %rax,%rdi
  4041f9:	e8 62 de ff ff       	callq  402060 <_ZSt11_Hash_bytesPKvmm@plt>
  4041fe:	c9                   	leaveq 
  4041ff:	c3                   	retq   

0000000000404200 <_ZNKSt4hashINSt7__cxx1112basic_stringIcSt11char_traitsIcESaIcEEEEclERKS5_>:
  404200:	55                   	push   %rbp
  404201:	48 89 e5             	mov    %rsp,%rbp
  404204:	53                   	push   %rbx
  404205:	48 83 ec 18          	sub    $0x18,%rsp
  404209:	48 89 7d e8          	mov    %rdi,-0x18(%rbp)
  40420d:	48 89 75 e0          	mov    %rsi,-0x20(%rbp)
  404211:	48 8b 45 e0          	mov    -0x20(%rbp),%rax
  404215:	48 89 c7             	mov    %rax,%rdi
  404218:	e8 73 e1 ff ff       	callq  402390 <_ZNKSt7__cxx1112basic_stringIcSt11char_traitsIcESaIcEE6lengthEv@plt>
  40421d:	48 89 c3             	mov    %rax,%rbx
  404220:	48 8b 45 e0          	mov    -0x20(%rbp),%rax
  404224:	48 89 c7             	mov    %rax,%rdi
  404227:	e8 b4 e0 ff ff       	callq  4022e0 <_ZNKSt7__cxx1112basic_stringIcSt11char_traitsIcESaIcEE4dataEv@plt>
  40422c:	ba 07 69 0f c7       	mov    $0xc70f6907,%edx
  404231:	48 89 de             	mov    %rbx,%rsi
  404234:	48 89 c7             	mov    %rax,%rdi
  404237:	e8 97 ff ff ff       	callq  4041d3 <_ZNSt10_Hash_impl4hashEPKvmm>
  40423c:	48 83 c4 18          	add    $0x18,%rsp
  404240:	5b                   	pop    %rbx
  404241:	5d                   	pop    %rbp
  404242:	c3                   	retq   

0000000000404243 <_ZStanSt13_Ios_FmtflagsS_>:
  404243:	55                   	push   %rbp
  404244:	48 89 e5             	mov    %rsp,%rbp
  404247:	89 7d fc             	mov    %edi,-0x4(%rbp)
  40424a:	89 75 f8             	mov    %esi,-0x8(%rbp)
  40424d:	8b 45 fc             	mov    -0x4(%rbp),%eax
  404250:	23 45 f8             	and    -0x8(%rbp),%eax
  404253:	5d                   	pop    %rbp
  404254:	c3                   	retq   

0000000000404255 <_ZStorSt13_Ios_FmtflagsS_>:
  404255:	55                   	push   %rbp
  404256:	48 89 e5             	mov    %rsp,%rbp
  404259:	89 7d fc             	mov    %edi,-0x4(%rbp)
  40425c:	89 75 f8             	mov    %esi,-0x8(%rbp)
  40425f:	8b 45 fc             	mov    -0x4(%rbp),%eax
  404262:	0b 45 f8             	or     -0x8(%rbp),%eax
  404265:	5d                   	pop    %rbp
  404266:	c3                   	retq   

0000000000404267 <_ZStcoSt13_Ios_Fmtflags>:
  404267:	55                   	push   %rbp
  404268:	48 89 e5             	mov    %rsp,%rbp
  40426b:	89 7d fc             	mov    %edi,-0x4(%rbp)
  40426e:	8b 45 fc             	mov    -0x4(%rbp),%eax
  404271:	f7 d0                	not    %eax
  404273:	5d                   	pop    %rbp
  404274:	c3                   	retq   

0000000000404275 <_ZStoRRSt13_Ios_FmtflagsS_>:
  404275:	55                   	push   %rbp
  404276:	48 89 e5             	mov    %rsp,%rbp
  404279:	48 83 ec 10          	sub    $0x10,%rsp
  40427d:	48 89 7d f8          	mov    %rdi,-0x8(%rbp)
  404281:	89 75 f4             	mov    %esi,-0xc(%rbp)
  404284:	48 8b 45 f8          	mov    -0x8(%rbp),%rax
  404288:	8b 00                	mov    (%rax),%eax
  40428a:	8b 55 f4             	mov    -0xc(%rbp),%edx
  40428d:	89 d6                	mov    %edx,%esi
  40428f:	89 c7                	mov    %eax,%edi
  404291:	e8 bf ff ff ff       	callq  404255 <_ZStorSt13_Ios_FmtflagsS_>
  404296:	89 c2                	mov    %eax,%edx
  404298:	48 8b 45 f8          	mov    -0x8(%rbp),%rax
  40429c:	89 10                	mov    %edx,(%rax)
  40429e:	48 8b 45 f8          	mov    -0x8(%rbp),%rax
  4042a2:	c9                   	leaveq 
  4042a3:	c3                   	retq   

00000000004042a4 <_ZStaNRSt13_Ios_FmtflagsS_>:
  4042a4:	55                   	push   %rbp
  4042a5:	48 89 e5             	mov    %rsp,%rbp
  4042a8:	48 83 ec 10          	sub    $0x10,%rsp
  4042ac:	48 89 7d f8          	mov    %rdi,-0x8(%rbp)
  4042b0:	89 75 f4             	mov    %esi,-0xc(%rbp)
  4042b3:	48 8b 45 f8          	mov    -0x8(%rbp),%rax
  4042b7:	8b 00                	mov    (%rax),%eax
  4042b9:	8b 55 f4             	mov    -0xc(%rbp),%edx
  4042bc:	89 d6                	mov    %edx,%esi
  4042be:	89 c7                	mov    %eax,%edi
  4042c0:	e8 7e ff ff ff       	callq  404243 <_ZStanSt13_Ios_FmtflagsS_>
  4042c5:	89 c2                	mov    %eax,%edx
  4042c7:	48 8b 45 f8          	mov    -0x8(%rbp),%rax
  4042cb:	89 10                	mov    %edx,(%rax)
  4042cd:	48 8b 45 f8          	mov    -0x8(%rbp),%rax
  4042d1:	c9                   	leaveq 
  4042d2:	c3                   	retq   

00000000004042d3 <_ZStorSt13_Ios_OpenmodeS_>:
  4042d3:	55                   	push   %rbp
  4042d4:	48 89 e5             	mov    %rsp,%rbp
  4042d7:	89 7d fc             	mov    %edi,-0x4(%rbp)
  4042da:	89 75 f8             	mov    %esi,-0x8(%rbp)
  4042dd:	8b 45 fc             	mov    -0x4(%rbp),%eax
  4042e0:	0b 45 f8             	or     -0x8(%rbp),%eax
  4042e3:	5d                   	pop    %rbp
  4042e4:	c3                   	retq   
  4042e5:	90                   	nop

00000000004042e6 <_ZNSt8ios_base4setfESt13_Ios_FmtflagsS0_>:
  4042e6:	55                   	push   %rbp
  4042e7:	48 89 e5             	mov    %rsp,%rbp
  4042ea:	48 83 ec 20          	sub    $0x20,%rsp
  4042ee:	48 89 7d e8          	mov    %rdi,-0x18(%rbp)
  4042f2:	89 75 e4             	mov    %esi,-0x1c(%rbp)
  4042f5:	89 55 e0             	mov    %edx,-0x20(%rbp)
  4042f8:	48 8b 45 e8          	mov    -0x18(%rbp),%rax
  4042fc:	8b 40 18             	mov    0x18(%rax),%eax
  4042ff:	89 45 fc             	mov    %eax,-0x4(%rbp)
  404302:	8b 45 e0             	mov    -0x20(%rbp),%eax
  404305:	89 c7                	mov    %eax,%edi
  404307:	e8 5b ff ff ff       	callq  404267 <_ZStcoSt13_Ios_Fmtflags>
  40430c:	89 c2                	mov    %eax,%edx
  40430e:	48 8b 45 e8          	mov    -0x18(%rbp),%rax
  404312:	48 83 c0 18          	add    $0x18,%rax
  404316:	89 d6                	mov    %edx,%esi
  404318:	48 89 c7             	mov    %rax,%rdi
  40431b:	e8 84 ff ff ff       	callq  4042a4 <_ZStaNRSt13_Ios_FmtflagsS_>
  404320:	8b 55 e0             	mov    -0x20(%rbp),%edx
  404323:	8b 45 e4             	mov    -0x1c(%rbp),%eax
  404326:	89 d6                	mov    %edx,%esi
  404328:	89 c7                	mov    %eax,%edi
  40432a:	e8 14 ff ff ff       	callq  404243 <_ZStanSt13_Ios_FmtflagsS_>
  40432f:	89 c2                	mov    %eax,%edx
  404331:	48 8b 45 e8          	mov    -0x18(%rbp),%rax
  404335:	48 83 c0 18          	add    $0x18,%rax
  404339:	89 d6                	mov    %edx,%esi
  40433b:	48 89 c7             	mov    %rax,%rdi
  40433e:	e8 32 ff ff ff       	callq  404275 <_ZStoRRSt13_Ios_FmtflagsS_>
  404343:	8b 45 fc             	mov    -0x4(%rbp),%eax
  404346:	c9                   	leaveq 
  404347:	c3                   	retq   

0000000000404348 <_ZSt3hexRSt8ios_base>:
  404348:	55                   	push   %rbp
  404349:	48 89 e5             	mov    %rsp,%rbp
  40434c:	48 83 ec 10          	sub    $0x10,%rsp
  404350:	48 89 7d f8          	mov    %rdi,-0x8(%rbp)
  404354:	48 8b 45 f8          	mov    -0x8(%rbp),%rax
  404358:	ba 4a 00 00 00       	mov    $0x4a,%edx
  40435d:	be 08 00 00 00       	mov    $0x8,%esi
  404362:	48 89 c7             	mov    %rax,%rdi
  404365:	e8 7c ff ff ff       	callq  4042e6 <_ZNSt8ios_base4setfESt13_Ios_FmtflagsS0_>
  40436a:	48 8b 45 f8          	mov    -0x8(%rbp),%rax
  40436e:	c9                   	leaveq 
  40436f:	c3                   	retq   

0000000000404370 <_ZNSt13random_deviceC1ERKNSt7__cxx1112basic_stringIcSt11char_traitsIcESaIcEEE>:
  404370:	55                   	push   %rbp
  404371:	48 89 e5             	mov    %rsp,%rbp
  404374:	48 83 ec 10          	sub    $0x10,%rsp
  404378:	48 89 7d f8          	mov    %rdi,-0x8(%rbp)
  40437c:	48 89 75 f0          	mov    %rsi,-0x10(%rbp)
  404380:	48 8b 55 f0          	mov    -0x10(%rbp),%rdx
  404384:	48 8b 45 f8          	mov    -0x8(%rbp),%rax
  404388:	48 89 d6             	mov    %rdx,%rsi
  40438b:	48 89 c7             	mov    %rax,%rdi
  40438e:	e8 7d e0 ff ff       	callq  402410 <_ZNSt13random_device7_M_initERKNSt7__cxx1112basic_stringIcSt11char_traitsIcESaIcEEE@plt>
  404393:	90                   	nop
  404394:	c9                   	leaveq 
  404395:	c3                   	retq   

0000000000404396 <_ZNSt13random_deviceD1Ev>:
  404396:	55                   	push   %rbp
  404397:	48 89 e5             	mov    %rsp,%rbp
  40439a:	48 83 ec 10          	sub    $0x10,%rsp
  40439e:	48 89 7d f8          	mov    %rdi,-0x8(%rbp)
  4043a2:	48 8b 45 f8          	mov    -0x8(%rbp),%rax
  4043a6:	48 89 c7             	mov    %rax,%rdi
  4043a9:	e8 62 de ff ff       	callq  402210 <_ZNSt13random_device7_M_finiEv@plt>
  4043ae:	90                   	nop
  4043af:	c9                   	leaveq 
  4043b0:	c3                   	retq   
  4043b1:	90                   	nop

00000000004043b2 <_ZNSt13random_deviceclEv>:
  4043b2:	55                   	push   %rbp
  4043b3:	48 89 e5             	mov    %rsp,%rbp
  4043b6:	48 83 ec 10          	sub    $0x10,%rsp
  4043ba:	48 89 7d f8          	mov    %rdi,-0x8(%rbp)
  4043be:	48 8b 45 f8          	mov    -0x8(%rbp),%rax
  4043c2:	48 89 c7             	mov    %rax,%rdi
  4043c5:	e8 56 df ff ff       	callq  402320 <_ZNSt13random_device9_M_getvalEv@plt>
  4043ca:	c9                   	leaveq 
  4043cb:	c3                   	retq   

00000000004043cc <_ZNSt23mersenne_twister_engineImLm32ELm624ELm397ELm31ELm2567483615ELm11ELm4294967295ELm7ELm2636928640ELm15ELm4022730752ELm18ELm1812433253EEC1Em>:
  4043cc:	55                   	push   %rbp
  4043cd:	48 89 e5             	mov    %rsp,%rbp
  4043d0:	48 83 ec 10          	sub    $0x10,%rsp
  4043d4:	48 89 7d f8          	mov    %rdi,-0x8(%rbp)
  4043d8:	48 89 75 f0          	mov    %rsi,-0x10(%rbp)
  4043dc:	48 8b 55 f0          	mov    -0x10(%rbp),%rdx
  4043e0:	48 8b 45 f8          	mov    -0x8(%rbp),%rax
  4043e4:	48 89 d6             	mov    %rdx,%rsi
  4043e7:	48 89 c7             	mov    %rax,%rdi
  4043ea:	e8 05 01 00 00       	callq  4044f4 <_ZNSt23mersenne_twister_engineImLm32ELm624ELm397ELm31ELm2567483615ELm11ELm4294967295ELm7ELm2636928640ELm15ELm4022730752ELm18ELm1812433253EE4seedEm>
  4043ef:	90                   	nop
  4043f0:	c9                   	leaveq 
  4043f1:	c3                   	retq   

00000000004043f2 <_ZNSt24uniform_int_distributionIiEC1Eii>:
  4043f2:	55                   	push   %rbp
  4043f3:	48 89 e5             	mov    %rsp,%rbp
  4043f6:	48 83 ec 10          	sub    $0x10,%rsp
  4043fa:	48 89 7d f8          	mov    %rdi,-0x8(%rbp)
  4043fe:	89 75 f4             	mov    %esi,-0xc(%rbp)
  404401:	89 55 f0             	mov    %edx,-0x10(%rbp)
  404404:	48 8b 45 f8          	mov    -0x8(%rbp),%rax
  404408:	8b 55 f0             	mov    -0x10(%rbp),%edx
  40440b:	8b 4d f4             	mov    -0xc(%rbp),%ecx
  40440e:	89 ce                	mov    %ecx,%esi
  404410:	48 89 c7             	mov    %rax,%rdi
  404413:	e8 88 01 00 00       	callq  4045a0 <_ZNSt24uniform_int_distributionIiE10param_typeC1Eii>
  404418:	90                   	nop
  404419:	c9                   	leaveq 
  40441a:	c3                   	retq   
  40441b:	90                   	nop

000000000040441c <_ZNSt24uniform_int_distributionIiEclISt23mersenne_twister_engineImLm32ELm624ELm397ELm31ELm2567483615ELm11ELm4294967295ELm7ELm2636928640ELm15ELm4022730752ELm18ELm1812433253EEEEiRT_>:
  40441c:	55                   	push   %rbp
  40441d:	48 89 e5             	mov    %rsp,%rbp
  404420:	48 83 ec 10          	sub    $0x10,%rsp
  404424:	48 89 7d f8          	mov    %rdi,-0x8(%rbp)
  404428:	48 89 75 f0          	mov    %rsi,-0x10(%rbp)
  40442c:	48 8b 55 f8          	mov    -0x8(%rbp),%rdx
  404430:	48 8b 4d f0          	mov    -0x10(%rbp),%rcx
  404434:	48 8b 45 f8          	mov    -0x8(%rbp),%rax
  404438:	48 89 ce             	mov    %rcx,%rsi
  40443b:	48 89 c7             	mov    %rax,%rdi
  40443e:	e8 81 01 00 00       	callq  4045c4 <_ZNSt24uniform_int_distributionIiEclISt23mersenne_twister_engineImLm32ELm624ELm397ELm31ELm2567483615ELm11ELm4294967295ELm7ELm2636928640ELm15ELm4022730752ELm18ELm1812433253EEEEiRT_RKNS0_10param_typeE>
  404443:	c9                   	leaveq 
  404444:	c3                   	retq   

0000000000404445 <_ZSteqIcSt11char_traitsIcESaIcEEbRKNSt7__cxx1112basic_stringIT_T0_T1_EEPKS5_>:
  404445:	55                   	push   %rbp
  404446:	48 89 e5             	mov    %rsp,%rbp
  404449:	48 83 ec 10          	sub    $0x10,%rsp
  40444d:	48 89 7d f8          	mov    %rdi,-0x8(%rbp)
  404451:	48 89 75 f0          	mov    %rsi,-0x10(%rbp)
  404455:	48 8b 55 f0          	mov    -0x10(%rbp),%rdx
  404459:	48 8b 45 f8          	mov    -0x8(%rbp),%rax
  40445d:	48 89 d6             	mov    %rdx,%rsi
  404460:	48 89 c7             	mov    %rax,%rdi
  404463:	e8 58 dc ff ff       	callq  4020c0 <_ZNKSt7__cxx1112basic_stringIcSt11char_traitsIcESaIcEE7compareEPKc@plt>
  404468:	85 c0                	test   %eax,%eax
  40446a:	0f 94 c0             	sete   %al
  40446d:	c9                   	leaveq 
  40446e:	c3                   	retq   

000000000040446f <_ZSteqIcEN9__gnu_cxx11__enable_ifIXsrSt9__is_charIT_E7__valueEbE6__typeERKNSt7__cxx1112basic_stringIS3_St11char_traitsIS3_ESaIS3_EEESE_>:
  40446f:	55                   	push   %rbp
  404470:	48 89 e5             	mov    %rsp,%rbp
  404473:	41 54                	push   %r12
  404475:	53                   	push   %rbx
  404476:	48 83 ec 10          	sub    $0x10,%rsp
  40447a:	48 89 7d e8          	mov    %rdi,-0x18(%rbp)
  40447e:	48 89 75 e0          	mov    %rsi,-0x20(%rbp)
  404482:	48 8b 45 e8          	mov    -0x18(%rbp),%rax
  404486:	48 89 c7             	mov    %rax,%rdi
  404489:	e8 f2 dc ff ff       	callq  402180 <_ZNKSt7__cxx1112basic_stringIcSt11char_traitsIcESaIcEE4sizeEv@plt>
  40448e:	48 89 c3             	mov    %rax,%rbx
  404491:	48 8b 45 e0          	mov    -0x20(%rbp),%rax
  404495:	48 89 c7             	mov    %rax,%rdi
  404498:	e8 e3 dc ff ff       	callq  402180 <_ZNKSt7__cxx1112basic_stringIcSt11char_traitsIcESaIcEE4sizeEv@plt>
  40449d:	48 39 c3             	cmp    %rax,%rbx
  4044a0:	75 43                	jne    4044e5 <_ZSteqIcEN9__gnu_cxx11__enable_ifIXsrSt9__is_charIT_E7__valueEbE6__typeERKNSt7__cxx1112basic_stringIS3_St11char_traitsIS3_ESaIS3_EEESE_+0x76>
  4044a2:	48 8b 45 e8          	mov    -0x18(%rbp),%rax
  4044a6:	48 89 c7             	mov    %rax,%rdi
  4044a9:	e8 d2 dc ff ff       	callq  402180 <_ZNKSt7__cxx1112basic_stringIcSt11char_traitsIcESaIcEE4sizeEv@plt>
  4044ae:	49 89 c4             	mov    %rax,%r12
  4044b1:	48 8b 45 e0          	mov    -0x20(%rbp),%rax
  4044b5:	48 89 c7             	mov    %rax,%rdi
  4044b8:	e8 23 de ff ff       	callq  4022e0 <_ZNKSt7__cxx1112basic_stringIcSt11char_traitsIcESaIcEE4dataEv@plt>
  4044bd:	48 89 c3             	mov    %rax,%rbx
  4044c0:	48 8b 45 e8          	mov    -0x18(%rbp),%rax
  4044c4:	48 89 c7             	mov    %rax,%rdi
  4044c7:	e8 14 de ff ff       	callq  4022e0 <_ZNKSt7__cxx1112basic_stringIcSt11char_traitsIcESaIcEE4dataEv@plt>
  4044cc:	4c 89 e2             	mov    %r12,%rdx
  4044cf:	48 89 de             	mov    %rbx,%rsi
  4044d2:	48 89 c7             	mov    %rax,%rdi
  4044d5:	e8 be fc ff ff       	callq  404198 <_ZNSt11char_traitsIcE7compareEPKcS2_m>
  4044da:	85 c0                	test   %eax,%eax
  4044dc:	75 07                	jne    4044e5 <_ZSteqIcEN9__gnu_cxx11__enable_ifIXsrSt9__is_charIT_E7__valueEbE6__typeERKNSt7__cxx1112basic_stringIS3_St11char_traitsIS3_ESaIS3_EEESE_+0x76>
  4044de:	b8 01 00 00 00       	mov    $0x1,%eax
  4044e3:	eb 05                	jmp    4044ea <_ZSteqIcEN9__gnu_cxx11__enable_ifIXsrSt9__is_charIT_E7__valueEbE6__typeERKNSt7__cxx1112basic_stringIS3_St11char_traitsIS3_ESaIS3_EEESE_+0x7b>
  4044e5:	b8 00 00 00 00       	mov    $0x0,%eax
  4044ea:	48 83 c4 10          	add    $0x10,%rsp
  4044ee:	5b                   	pop    %rbx
  4044ef:	41 5c                	pop    %r12
  4044f1:	5d                   	pop    %rbp
  4044f2:	c3                   	retq   
  4044f3:	90                   	nop

00000000004044f4 <_ZNSt23mersenne_twister_engineImLm32ELm624ELm397ELm31ELm2567483615ELm11ELm4294967295ELm7ELm2636928640ELm15ELm4022730752ELm18ELm1812433253EE4seedEm>:
  4044f4:	55                   	push   %rbp
  4044f5:	48 89 e5             	mov    %rsp,%rbp
  4044f8:	48 83 ec 20          	sub    $0x20,%rsp
  4044fc:	48 89 7d e8          	mov    %rdi,-0x18(%rbp)
  404500:	48 89 75 e0          	mov    %rsi,-0x20(%rbp)
  404504:	48 8b 45 e0          	mov    -0x20(%rbp),%rax
  404508:	48 89 c7             	mov    %rax,%rdi
  40450b:	e8 57 02 00 00       	callq  404767 <_ZNSt8__detail5__modImLm4294967296ELm1ELm0EEET_S1_>
  404510:	48 89 c2             	mov    %rax,%rdx
  404513:	48 8b 45 e8          	mov    -0x18(%rbp),%rax
  404517:	48 89 10             	mov    %rdx,(%rax)
  40451a:	48 c7 45 f0 01 00 00 	movq   $0x1,-0x10(%rbp)
  404521:	00 
  404522:	48 81 7d f0 6f 02 00 	cmpq   $0x26f,-0x10(%rbp)
  404529:	00 
  40452a:	77 61                	ja     40458d <_ZNSt23mersenne_twister_engineImLm32ELm624ELm397ELm31ELm2567483615ELm11ELm4294967295ELm7ELm2636928640ELm15ELm4022730752ELm18ELm1812433253EE4seedEm+0x99>
  40452c:	48 8b 45 f0          	mov    -0x10(%rbp),%rax
  404530:	48 8d 50 ff          	lea    -0x1(%rax),%rdx
  404534:	48 8b 45 e8          	mov    -0x18(%rbp),%rax
  404538:	48 8b 04 d0          	mov    (%rax,%rdx,8),%rax
  40453c:	48 89 45 f8          	mov    %rax,-0x8(%rbp)
  404540:	48 8b 45 f8          	mov    -0x8(%rbp),%rax
  404544:	48 c1 e8 1e          	shr    $0x1e,%rax
  404548:	48 31 45 f8          	xor    %rax,-0x8(%rbp)
  40454c:	48 8b 45 f8          	mov    -0x8(%rbp),%rax
  404550:	48 69 c0 65 89 07 6c 	imul   $0x6c078965,%rax,%rax
  404557:	48 89 45 f8          	mov    %rax,-0x8(%rbp)
  40455b:	48 8b 45 f0          	mov    -0x10(%rbp),%rax
  40455f:	48 89 c7             	mov    %rax,%rdi
  404562:	e8 1a 02 00 00       	callq  404781 <_ZNSt8__detail5__modImLm624ELm1ELm0EEET_S1_>
  404567:	48 01 45 f8          	add    %rax,-0x8(%rbp)
  40456b:	48 8b 45 f8          	mov    -0x8(%rbp),%rax
  40456f:	48 89 c7             	mov    %rax,%rdi
  404572:	e8 f0 01 00 00       	callq  404767 <_ZNSt8__detail5__modImLm4294967296ELm1ELm0EEET_S1_>
  404577:	48 89 c1             	mov    %rax,%rcx
  40457a:	48 8b 45 e8          	mov    -0x18(%rbp),%rax
  40457e:	48 8b 55 f0          	mov    -0x10(%rbp),%rdx
  404582:	48 89 0c d0          	mov    %rcx,(%rax,%rdx,8)
  404586:	48 83 45 f0 01       	addq   $0x1,-0x10(%rbp)
  40458b:	eb 95                	jmp    404522 <_ZNSt23mersenne_twister_engineImLm32ELm624ELm397ELm31ELm2567483615ELm11ELm4294967295ELm7ELm2636928640ELm15ELm4022730752ELm18ELm1812433253EE4seedEm+0x2e>
  40458d:	48 8b 45 e8          	mov    -0x18(%rbp),%rax
  404591:	48 c7 80 80 13 00 00 	movq   $0x270,0x1380(%rax)
  404598:	70 02 00 00 
  40459c:	90                   	nop
  40459d:	c9                   	leaveq 
  40459e:	c3                   	retq   
  40459f:	90                   	nop

00000000004045a0 <_ZNSt24uniform_int_distributionIiE10param_typeC1Eii>:
  4045a0:	55                   	push   %rbp
  4045a1:	48 89 e5             	mov    %rsp,%rbp
  4045a4:	48 89 7d f8          	mov    %rdi,-0x8(%rbp)
  4045a8:	89 75 f4             	mov    %esi,-0xc(%rbp)
  4045ab:	89 55 f0             	mov    %edx,-0x10(%rbp)
  4045ae:	48 8b 45 f8          	mov    -0x8(%rbp),%rax
  4045b2:	8b 55 f4             	mov    -0xc(%rbp),%edx
  4045b5:	89 10                	mov    %edx,(%rax)
  4045b7:	48 8b 45 f8          	mov    -0x8(%rbp),%rax
  4045bb:	8b 55 f0             	mov    -0x10(%rbp),%edx
  4045be:	89 50 04             	mov    %edx,0x4(%rax)
  4045c1:	90                   	nop
  4045c2:	5d                   	pop    %rbp
  4045c3:	c3                   	retq   

00000000004045c4 <_ZNSt24uniform_int_distributionIiEclISt23mersenne_twister_engineImLm32ELm624ELm397ELm31ELm2567483615ELm11ELm4294967295ELm7ELm2636928640ELm15ELm4022730752ELm18ELm1812433253EEEEiRT_RKNS0_10param_typeE>:
  4045c4:	55                   	push   %rbp
  4045c5:	48 89 e5             	mov    %rsp,%rbp
  4045c8:	53                   	push   %rbx
  4045c9:	48 81 ec 88 00 00 00 	sub    $0x88,%rsp
  4045d0:	48 89 7d 88          	mov    %rdi,-0x78(%rbp)
  4045d4:	48 89 75 80          	mov    %rsi,-0x80(%rbp)
  4045d8:	48 89 95 78 ff ff ff 	mov    %rdx,-0x88(%rbp)
  4045df:	64 48 8b 04 25 28 00 	mov    %fs:0x28,%rax
  4045e6:	00 00 
  4045e8:	48 89 45 e8          	mov    %rax,-0x18(%rbp)
  4045ec:	31 c0                	xor    %eax,%eax
  4045ee:	48 c7 45 a0 00 00 00 	movq   $0x0,-0x60(%rbp)
  4045f5:	00 
  4045f6:	b8 ff ff ff ff       	mov    $0xffffffff,%eax
  4045fb:	48 89 45 a8          	mov    %rax,-0x58(%rbp)
  4045ff:	b8 ff ff ff ff       	mov    $0xffffffff,%eax
  404604:	48 89 45 b0          	mov    %rax,-0x50(%rbp)
  404608:	48 8b 85 78 ff ff ff 	mov    -0x88(%rbp),%rax
  40460f:	48 89 c7             	mov    %rax,%rdi
  404612:	e8 85 01 00 00       	callq  40479c <_ZNKSt24uniform_int_distributionIiE10param_type1bEv>
  404617:	48 63 d8             	movslq %eax,%rbx
  40461a:	48 8b 85 78 ff ff ff 	mov    -0x88(%rbp),%rax
  404621:	48 89 c7             	mov    %rax,%rdi
  404624:	e8 85 01 00 00       	callq  4047ae <_ZNKSt24uniform_int_distributionIiE10param_type1aEv>
  404629:	48 98                	cltq   
  40462b:	48 29 c3             	sub    %rax,%rbx
  40462e:	48 89 d8             	mov    %rbx,%rax
  404631:	48 89 45 b8          	mov    %rax,-0x48(%rbp)
  404635:	b8 fe ff ff ff       	mov    $0xfffffffe,%eax
  40463a:	48 39 45 b8          	cmp    %rax,-0x48(%rbp)
  40463e:	77 5d                	ja     40469d <_ZNSt24uniform_int_distributionIiEclISt23mersenne_twister_engineImLm32ELm624ELm397ELm31ELm2567483615ELm11ELm4294967295ELm7ELm2636928640ELm15ELm4022730752ELm18ELm1812433253EEEEiRT_RKNS0_10param_typeE+0xd9>
  404640:	48 8b 45 b8          	mov    -0x48(%rbp),%rax
  404644:	48 83 c0 01          	add    $0x1,%rax
  404648:	48 89 45 c0          	mov    %rax,-0x40(%rbp)
  40464c:	b8 ff ff ff ff       	mov    $0xffffffff,%eax
  404651:	ba 00 00 00 00       	mov    $0x0,%edx
  404656:	48 f7 75 c0          	divq   -0x40(%rbp)
  40465a:	48 89 45 c8          	mov    %rax,-0x38(%rbp)
  40465e:	48 8b 45 c0          	mov    -0x40(%rbp),%rax
  404662:	48 0f af 45 c8       	imul   -0x38(%rbp),%rax
  404667:	48 89 45 d0          	mov    %rax,-0x30(%rbp)
  40466b:	48 8b 45 80          	mov    -0x80(%rbp),%rax
  40466f:	48 89 c7             	mov    %rax,%rdi
  404672:	e8 47 01 00 00       	callq  4047be <_ZNSt23mersenne_twister_engineImLm32ELm624ELm397ELm31ELm2567483615ELm11ELm4294967295ELm7ELm2636928640ELm15ELm4022730752ELm18ELm1812433253EEclEv>
  404677:	48 89 45 98          	mov    %rax,-0x68(%rbp)
  40467b:	48 8b 45 98          	mov    -0x68(%rbp),%rax
  40467f:	48 3b 45 d0          	cmp    -0x30(%rbp),%rax
  404683:	72 02                	jb     404687 <_ZNSt24uniform_int_distributionIiEclISt23mersenne_twister_engineImLm32ELm624ELm397ELm31ELm2567483615ELm11ELm4294967295ELm7ELm2636928640ELm15ELm4022730752ELm18ELm1812433253EEEEiRT_RKNS0_10param_typeE+0xc3>
  404685:	eb e4                	jmp    40466b <_ZNSt24uniform_int_distributionIiEclISt23mersenne_twister_engineImLm32ELm624ELm397ELm31ELm2567483615ELm11ELm4294967295ELm7ELm2636928640ELm15ELm4022730752ELm18ELm1812433253EEEEiRT_RKNS0_10param_typeE+0xa7>
  404687:	48 8b 45 98          	mov    -0x68(%rbp),%rax
  40468b:	ba 00 00 00 00       	mov    $0x0,%edx
  404690:	48 f7 75 c8          	divq   -0x38(%rbp)
  404694:	48 89 45 98          	mov    %rax,-0x68(%rbp)
  404698:	e9 95 00 00 00       	jmpq   404732 <_ZNSt24uniform_int_distributionIiEclISt23mersenne_twister_engineImLm32ELm624ELm397ELm31ELm2567483615ELm11ELm4294967295ELm7ELm2636928640ELm15ELm4022730752ELm18ELm1812433253EEEEiRT_RKNS0_10param_typeE+0x16e>
  40469d:	b8 ff ff ff ff       	mov    $0xffffffff,%eax
  4046a2:	48 39 45 b8          	cmp    %rax,-0x48(%rbp)
  4046a6:	76 7a                	jbe    404722 <_ZNSt24uniform_int_distributionIiEclISt23mersenne_twister_engineImLm32ELm624ELm397ELm31ELm2567483615ELm11ELm4294967295ELm7ELm2636928640ELm15ELm4022730752ELm18ELm1812433253EEEEiRT_RKNS0_10param_typeE+0x15e>
  4046a8:	48 b8 00 00 00 00 01 	movabs $0x100000000,%rax
  4046af:	00 00 00 
  4046b2:	48 89 45 d8          	mov    %rax,-0x28(%rbp)
  4046b6:	48 8b 45 b8          	mov    -0x48(%rbp),%rax
  4046ba:	48 c1 e8 20          	shr    $0x20,%rax
  4046be:	89 c2                	mov    %eax,%edx
  4046c0:	48 8d 45 90          	lea    -0x70(%rbp),%rax
  4046c4:	be 00 00 00 00       	mov    $0x0,%esi
  4046c9:	48 89 c7             	mov    %rax,%rdi
  4046cc:	e8 cf fe ff ff       	callq  4045a0 <_ZNSt24uniform_int_distributionIiE10param_typeC1Eii>
  4046d1:	48 8d 55 90          	lea    -0x70(%rbp),%rdx
  4046d5:	48 8b 4d 80          	mov    -0x80(%rbp),%rcx
  4046d9:	48 8b 45 88          	mov    -0x78(%rbp),%rax
  4046dd:	48 89 ce             	mov    %rcx,%rsi
  4046e0:	48 89 c7             	mov    %rax,%rdi
  4046e3:	e8 dc fe ff ff       	callq  4045c4 <_ZNSt24uniform_int_distributionIiEclISt23mersenne_twister_engineImLm32ELm624ELm397ELm31ELm2567483615ELm11ELm4294967295ELm7ELm2636928640ELm15ELm4022730752ELm18ELm1812433253EEEEiRT_RKNS0_10param_typeE>
  4046e8:	48 98                	cltq   
  4046ea:	48 c1 e0 20          	shl    $0x20,%rax
  4046ee:	48 89 45 e0          	mov    %rax,-0x20(%rbp)
  4046f2:	48 8b 45 80          	mov    -0x80(%rbp),%rax
  4046f6:	48 89 c7             	mov    %rax,%rdi
  4046f9:	e8 c0 00 00 00       	callq  4047be <_ZNSt23mersenne_twister_engineImLm32ELm624ELm397ELm31ELm2567483615ELm11ELm4294967295ELm7ELm2636928640ELm15ELm4022730752ELm18ELm1812433253EEclEv>
  4046fe:	48 89 c2             	mov    %rax,%rdx
  404701:	48 8b 45 e0          	mov    -0x20(%rbp),%rax
  404705:	48 01 d0             	add    %rdx,%rax
  404708:	48 89 45 98          	mov    %rax,-0x68(%rbp)
  40470c:	48 8b 45 98          	mov    -0x68(%rbp),%rax
  404710:	48 3b 45 b8          	cmp    -0x48(%rbp),%rax
  404714:	77 92                	ja     4046a8 <_ZNSt24uniform_int_distributionIiEclISt23mersenne_twister_engineImLm32ELm624ELm397ELm31ELm2567483615ELm11ELm4294967295ELm7ELm2636928640ELm15ELm4022730752ELm18ELm1812433253EEEEiRT_RKNS0_10param_typeE+0xe4>
  404716:	48 8b 45 98          	mov    -0x68(%rbp),%rax
  40471a:	48 3b 45 e0          	cmp    -0x20(%rbp),%rax
  40471e:	73 12                	jae    404732 <_ZNSt24uniform_int_distributionIiEclISt23mersenne_twister_engineImLm32ELm624ELm397ELm31ELm2567483615ELm11ELm4294967295ELm7ELm2636928640ELm15ELm4022730752ELm18ELm1812433253EEEEiRT_RKNS0_10param_typeE+0x16e>
  404720:	eb 86                	jmp    4046a8 <_ZNSt24uniform_int_distributionIiEclISt23mersenne_twister_engineImLm32ELm624ELm397ELm31ELm2567483615ELm11ELm4294967295ELm7ELm2636928640ELm15ELm4022730752ELm18ELm1812433253EEEEiRT_RKNS0_10param_typeE+0xe4>
  404722:	48 8b 45 80          	mov    -0x80(%rbp),%rax
  404726:	48 89 c7             	mov    %rax,%rdi
  404729:	e8 90 00 00 00       	callq  4047be <_ZNSt23mersenne_twister_engineImLm32ELm624ELm397ELm31ELm2567483615ELm11ELm4294967295ELm7ELm2636928640ELm15ELm4022730752ELm18ELm1812433253EEclEv>
  40472e:	48 89 45 98          	mov    %rax,-0x68(%rbp)
  404732:	48 8b 85 78 ff ff ff 	mov    -0x88(%rbp),%rax
  404739:	48 89 c7             	mov    %rax,%rdi
  40473c:	e8 6d 00 00 00       	callq  4047ae <_ZNKSt24uniform_int_distributionIiE10param_type1aEv>
  404741:	89 c2                	mov    %eax,%edx
  404743:	48 8b 45 98          	mov    -0x68(%rbp),%rax
  404747:	01 d0                	add    %edx,%eax
  404749:	48 8b 4d e8          	mov    -0x18(%rbp),%rcx
  40474d:	64 48 33 0c 25 28 00 	xor    %fs:0x28,%rcx
  404754:	00 00 
  404756:	74 05                	je     40475d <_ZNSt24uniform_int_distributionIiEclISt23mersenne_twister_engineImLm32ELm624ELm397ELm31ELm2567483615ELm11ELm4294967295ELm7ELm2636928640ELm15ELm4022730752ELm18ELm1812433253EEEEiRT_RKNS0_10param_typeE+0x199>
  404758:	e8 23 db ff ff       	callq  402280 <__stack_chk_fail@plt>
  40475d:	48 81 c4 88 00 00 00 	add    $0x88,%rsp
  404764:	5b                   	pop    %rbx
  404765:	5d                   	pop    %rbp
  404766:	c3                   	retq   

0000000000404767 <_ZNSt8__detail5__modImLm4294967296ELm1ELm0EEET_S1_>:
  404767:	55                   	push   %rbp
  404768:	48 89 e5             	mov    %rsp,%rbp
  40476b:	48 83 ec 10          	sub    $0x10,%rsp
  40476f:	48 89 7d f8          	mov    %rdi,-0x8(%rbp)
  404773:	48 8b 45 f8          	mov    -0x8(%rbp),%rax
  404777:	48 89 c7             	mov    %rax,%rdi
  40477a:	e8 d2 00 00 00       	callq  404851 <_ZNSt8__detail4_ModImLm4294967296ELm1ELm0ELb1ELb1EE6__calcEm>
  40477f:	c9                   	leaveq 
  404780:	c3                   	retq   

0000000000404781 <_ZNSt8__detail5__modImLm624ELm1ELm0EEET_S1_>:
  404781:	55                   	push   %rbp
  404782:	48 89 e5             	mov    %rsp,%rbp
  404785:	48 83 ec 10          	sub    $0x10,%rsp
  404789:	48 89 7d f8          	mov    %rdi,-0x8(%rbp)
  40478d:	48 8b 45 f8          	mov    -0x8(%rbp),%rax
  404791:	48 89 c7             	mov    %rax,%rdi
  404794:	e8 d7 00 00 00       	callq  404870 <_ZNSt8__detail4_ModImLm624ELm1ELm0ELb1ELb1EE6__calcEm>
  404799:	c9                   	leaveq 
  40479a:	c3                   	retq   
  40479b:	90                   	nop

000000000040479c <_ZNKSt24uniform_int_distributionIiE10param_type1bEv>:
  40479c:	55                   	push   %rbp
  40479d:	48 89 e5             	mov    %rsp,%rbp
  4047a0:	48 89 7d f8          	mov    %rdi,-0x8(%rbp)
  4047a4:	48 8b 45 f8          	mov    -0x8(%rbp),%rax
  4047a8:	8b 40 04             	mov    0x4(%rax),%eax
  4047ab:	5d                   	pop    %rbp
  4047ac:	c3                   	retq   
  4047ad:	90                   	nop

00000000004047ae <_ZNKSt24uniform_int_distributionIiE10param_type1aEv>:
  4047ae:	55                   	push   %rbp
  4047af:	48 89 e5             	mov    %rsp,%rbp
  4047b2:	48 89 7d f8          	mov    %rdi,-0x8(%rbp)
  4047b6:	48 8b 45 f8          	mov    -0x8(%rbp),%rax
  4047ba:	8b 00                	mov    (%rax),%eax
  4047bc:	5d                   	pop    %rbp
  4047bd:	c3                   	retq   

00000000004047be <_ZNSt23mersenne_twister_engineImLm32ELm624ELm397ELm31ELm2567483615ELm11ELm4294967295ELm7ELm2636928640ELm15ELm4022730752ELm18ELm1812433253EEclEv>:
  4047be:	55                   	push   %rbp
  4047bf:	48 89 e5             	mov    %rsp,%rbp
  4047c2:	48 83 ec 20          	sub    $0x20,%rsp
  4047c6:	48 89 7d e8          	mov    %rdi,-0x18(%rbp)
  4047ca:	48 8b 45 e8          	mov    -0x18(%rbp),%rax
  4047ce:	48 8b 80 80 13 00 00 	mov    0x1380(%rax),%rax
  4047d5:	48 3d 6f 02 00 00    	cmp    $0x26f,%rax
  4047db:	76 0c                	jbe    4047e9 <_ZNSt23mersenne_twister_engineImLm32ELm624ELm397ELm31ELm2567483615ELm11ELm4294967295ELm7ELm2636928640ELm15ELm4022730752ELm18ELm1812433253EEclEv+0x2b>
  4047dd:	48 8b 45 e8          	mov    -0x18(%rbp),%rax
  4047e1:	48 89 c7             	mov    %rax,%rdi
  4047e4:	e8 cd 00 00 00       	callq  4048b6 <_ZNSt23mersenne_twister_engineImLm32ELm624ELm397ELm31ELm2567483615ELm11ELm4294967295ELm7ELm2636928640ELm15ELm4022730752ELm18ELm1812433253EE11_M_gen_randEv>
  4047e9:	48 8b 45 e8          	mov    -0x18(%rbp),%rax
  4047ed:	48 8b 80 80 13 00 00 	mov    0x1380(%rax),%rax
  4047f4:	48 8d 48 01          	lea    0x1(%rax),%rcx
  4047f8:	48 8b 55 e8          	mov    -0x18(%rbp),%rdx
  4047fc:	48 89 8a 80 13 00 00 	mov    %rcx,0x1380(%rdx)
  404803:	48 8b 55 e8          	mov    -0x18(%rbp),%rdx
  404807:	48 8b 04 c2          	mov    (%rdx,%rax,8),%rax
  40480b:	48 89 45 f8          	mov    %rax,-0x8(%rbp)
  40480f:	48 8b 45 f8          	mov    -0x8(%rbp),%rax
  404813:	48 c1 e8 0b          	shr    $0xb,%rax
  404817:	89 c0                	mov    %eax,%eax
  404819:	48 31 45 f8          	xor    %rax,-0x8(%rbp)
  40481d:	48 8b 45 f8          	mov    -0x8(%rbp),%rax
  404821:	48 c1 e0 07          	shl    $0x7,%rax
  404825:	25 80 56 2c 9d       	and    $0x9d2c5680,%eax
  40482a:	48 31 45 f8          	xor    %rax,-0x8(%rbp)
  40482e:	48 8b 45 f8          	mov    -0x8(%rbp),%rax
  404832:	48 c1 e0 0f          	shl    $0xf,%rax
  404836:	25 00 00 c6 ef       	and    $0xefc60000,%eax
  40483b:	48 31 45 f8          	xor    %rax,-0x8(%rbp)
  40483f:	48 8b 45 f8          	mov    -0x8(%rbp),%rax
  404843:	48 c1 e8 12          	shr    $0x12,%rax
  404847:	48 31 45 f8          	xor    %rax,-0x8(%rbp)
  40484b:	48 8b 45 f8          	mov    -0x8(%rbp),%rax
  40484f:	c9                   	leaveq 
  404850:	c3                   	retq   

0000000000404851 <_ZNSt8__detail4_ModImLm4294967296ELm1ELm0ELb1ELb1EE6__calcEm>:
  404851:	55                   	push   %rbp
  404852:	48 89 e5             	mov    %rsp,%rbp
  404855:	48 89 7d e8          	mov    %rdi,-0x18(%rbp)
  404859:	48 8b 45 e8          	mov    -0x18(%rbp),%rax
  40485d:	48 89 45 f8          	mov    %rax,-0x8(%rbp)
  404861:	b8 ff ff ff ff       	mov    $0xffffffff,%eax
  404866:	48 21 45 f8          	and    %rax,-0x8(%rbp)
  40486a:	48 8b 45 f8          	mov    -0x8(%rbp),%rax
  40486e:	5d                   	pop    %rbp
  40486f:	c3                   	retq   

0000000000404870 <_ZNSt8__detail4_ModImLm624ELm1ELm0ELb1ELb1EE6__calcEm>:
  404870:	55                   	push   %rbp
  404871:	48 89 e5             	mov    %rsp,%rbp
  404874:	48 89 7d e8          	mov    %rdi,-0x18(%rbp)
  404878:	48 8b 45 e8          	mov    -0x18(%rbp),%rax
  40487c:	48 89 45 f8          	mov    %rax,-0x8(%rbp)
  404880:	48 8b 4d f8          	mov    -0x8(%rbp),%rcx
  404884:	48 89 c8             	mov    %rcx,%rax
  404887:	48 c1 e8 04          	shr    $0x4,%rax
  40488b:	48 ba 21 0d d2 20 0d 	movabs $0xd20d20d20d20d21,%rdx
  404892:	d2 20 0d 
  404895:	48 f7 e2             	mul    %rdx
  404898:	48 89 d0             	mov    %rdx,%rax
  40489b:	48 d1 e8             	shr    %rax
  40489e:	48 69 c0 70 02 00 00 	imul   $0x270,%rax,%rax
  4048a5:	48 29 c1             	sub    %rax,%rcx
  4048a8:	48 89 c8             	mov    %rcx,%rax
  4048ab:	48 89 45 f8          	mov    %rax,-0x8(%rbp)
  4048af:	48 8b 45 f8          	mov    -0x8(%rbp),%rax
  4048b3:	5d                   	pop    %rbp
  4048b4:	c3                   	retq   
  4048b5:	90                   	nop

00000000004048b6 <_ZNSt23mersenne_twister_engineImLm32ELm624ELm397ELm31ELm2567483615ELm11ELm4294967295ELm7ELm2636928640ELm15ELm4022730752ELm18ELm1812433253EE11_M_gen_randEv>:
  4048b6:	55                   	push   %rbp
  4048b7:	48 89 e5             	mov    %rsp,%rbp
  4048ba:	48 89 7d b8          	mov    %rdi,-0x48(%rbp)
  4048be:	48 c7 45 d8 00 00 00 	movq   $0xffffffff80000000,-0x28(%rbp)
  4048c5:	80 
  4048c6:	48 c7 45 e0 ff ff ff 	movq   $0x7fffffff,-0x20(%rbp)
  4048cd:	7f 
  4048ce:	48 c7 45 c8 00 00 00 	movq   $0x0,-0x38(%rbp)
  4048d5:	00 
  4048d6:	48 81 7d c8 e2 00 00 	cmpq   $0xe2,-0x38(%rbp)
  4048dd:	00 
  4048de:	0f 87 82 00 00 00    	ja     404966 <_ZNSt23mersenne_twister_engineImLm32ELm624ELm397ELm31ELm2567483615ELm11ELm4294967295ELm7ELm2636928640ELm15ELm4022730752ELm18ELm1812433253EE11_M_gen_randEv+0xb0>
  4048e4:	48 8b 45 b8          	mov    -0x48(%rbp),%rax
  4048e8:	48 8b 55 c8          	mov    -0x38(%rbp),%rdx
  4048ec:	48 8b 04 d0          	mov    (%rax,%rdx,8),%rax
  4048f0:	48 25 00 00 00 80    	and    $0xffffffff80000000,%rax
  4048f6:	48 89 c1             	mov    %rax,%rcx
  4048f9:	48 8b 45 c8          	mov    -0x38(%rbp),%rax
  4048fd:	48 8d 50 01          	lea    0x1(%rax),%rdx
  404901:	48 8b 45 b8          	mov    -0x48(%rbp),%rax
  404905:	48 8b 04 d0          	mov    (%rax,%rdx,8),%rax
  404909:	25 ff ff ff 7f       	and    $0x7fffffff,%eax
  40490e:	48 09 c8             	or     %rcx,%rax
  404911:	48 89 45 e8          	mov    %rax,-0x18(%rbp)
  404915:	48 8b 45 c8          	mov    -0x38(%rbp),%rax
  404919:	48 8d 90 8d 01 00 00 	lea    0x18d(%rax),%rdx
  404920:	48 8b 45 b8          	mov    -0x48(%rbp),%rax
  404924:	48 8b 04 d0          	mov    (%rax,%rdx,8),%rax
  404928:	48 8b 55 e8          	mov    -0x18(%rbp),%rdx
  40492c:	48 d1 ea             	shr    %rdx
  40492f:	48 31 c2             	xor    %rax,%rdx
  404932:	48 8b 45 e8          	mov    -0x18(%rbp),%rax
  404936:	83 e0 01             	and    $0x1,%eax
  404939:	48 85 c0             	test   %rax,%rax
  40493c:	74 07                	je     404945 <_ZNSt23mersenne_twister_engineImLm32ELm624ELm397ELm31ELm2567483615ELm11ELm4294967295ELm7ELm2636928640ELm15ELm4022730752ELm18ELm1812433253EE11_M_gen_randEv+0x8f>
  40493e:	b8 df b0 08 99       	mov    $0x9908b0df,%eax
  404943:	eb 05                	jmp    40494a <_ZNSt23mersenne_twister_engineImLm32ELm624ELm397ELm31ELm2567483615ELm11ELm4294967295ELm7ELm2636928640ELm15ELm4022730752ELm18ELm1812433253EE11_M_gen_randEv+0x94>
  404945:	b8 00 00 00 00       	mov    $0x0,%eax
  40494a:	48 89 d1             	mov    %rdx,%rcx
  40494d:	48 31 c1             	xor    %rax,%rcx
  404950:	48 8b 45 b8          	mov    -0x48(%rbp),%rax
  404954:	48 8b 55 c8          	mov    -0x38(%rbp),%rdx
  404958:	48 89 0c d0          	mov    %rcx,(%rax,%rdx,8)
  40495c:	48 83 45 c8 01       	addq   $0x1,-0x38(%rbp)
  404961:	e9 70 ff ff ff       	jmpq   4048d6 <_ZNSt23mersenne_twister_engineImLm32ELm624ELm397ELm31ELm2567483615ELm11ELm4294967295ELm7ELm2636928640ELm15ELm4022730752ELm18ELm1812433253EE11_M_gen_randEv+0x20>
  404966:	48 c7 45 d0 e3 00 00 	movq   $0xe3,-0x30(%rbp)
  40496d:	00 
  40496e:	48 81 7d d0 6e 02 00 	cmpq   $0x26e,-0x30(%rbp)
  404975:	00 
  404976:	0f 87 82 00 00 00    	ja     4049fe <_ZNSt23mersenne_twister_engineImLm32ELm624ELm397ELm31ELm2567483615ELm11ELm4294967295ELm7ELm2636928640ELm15ELm4022730752ELm18ELm1812433253EE11_M_gen_randEv+0x148>
  40497c:	48 8b 45 b8          	mov    -0x48(%rbp),%rax
  404980:	48 8b 55 d0          	mov    -0x30(%rbp),%rdx
  404984:	48 8b 04 d0          	mov    (%rax,%rdx,8),%rax
  404988:	48 25 00 00 00 80    	and    $0xffffffff80000000,%rax
  40498e:	48 89 c1             	mov    %rax,%rcx
  404991:	48 8b 45 d0          	mov    -0x30(%rbp),%rax
  404995:	48 8d 50 01          	lea    0x1(%rax),%rdx
  404999:	48 8b 45 b8          	mov    -0x48(%rbp),%rax
  40499d:	48 8b 04 d0          	mov    (%rax,%rdx,8),%rax
  4049a1:	25 ff ff ff 7f       	and    $0x7fffffff,%eax
  4049a6:	48 09 c8             	or     %rcx,%rax
  4049a9:	48 89 45 f0          	mov    %rax,-0x10(%rbp)
  4049ad:	48 8b 45 d0          	mov    -0x30(%rbp),%rax
  4049b1:	48 8d 90 1d ff ff ff 	lea    -0xe3(%rax),%rdx
  4049b8:	48 8b 45 b8          	mov    -0x48(%rbp),%rax
  4049bc:	48 8b 04 d0          	mov    (%rax,%rdx,8),%rax
  4049c0:	48 8b 55 f0          	mov    -0x10(%rbp),%rdx
  4049c4:	48 d1 ea             	shr    %rdx
  4049c7:	48 31 c2             	xor    %rax,%rdx
  4049ca:	48 8b 45 f0          	mov    -0x10(%rbp),%rax
  4049ce:	83 e0 01             	and    $0x1,%eax
  4049d1:	48 85 c0             	test   %rax,%rax
  4049d4:	74 07                	je     4049dd <_ZNSt23mersenne_twister_engineImLm32ELm624ELm397ELm31ELm2567483615ELm11ELm4294967295ELm7ELm2636928640ELm15ELm4022730752ELm18ELm1812433253EE11_M_gen_randEv+0x127>
  4049d6:	b8 df b0 08 99       	mov    $0x9908b0df,%eax
  4049db:	eb 05                	jmp    4049e2 <_ZNSt23mersenne_twister_engineImLm32ELm624ELm397ELm31ELm2567483615ELm11ELm4294967295ELm7ELm2636928640ELm15ELm4022730752ELm18ELm1812433253EE11_M_gen_randEv+0x12c>
  4049dd:	b8 00 00 00 00       	mov    $0x0,%eax
  4049e2:	48 89 d1             	mov    %rdx,%rcx
  4049e5:	48 31 c1             	xor    %rax,%rcx
  4049e8:	48 8b 45 b8          	mov    -0x48(%rbp),%rax
  4049ec:	48 8b 55 d0          	mov    -0x30(%rbp),%rdx
  4049f0:	48 89 0c d0          	mov    %rcx,(%rax,%rdx,8)
  4049f4:	48 83 45 d0 01       	addq   $0x1,-0x30(%rbp)
  4049f9:	e9 70 ff ff ff       	jmpq   40496e <_ZNSt23mersenne_twister_engineImLm32ELm624ELm397ELm31ELm2567483615ELm11ELm4294967295ELm7ELm2636928640ELm15ELm4022730752ELm18ELm1812433253EE11_M_gen_randEv+0xb8>
  4049fe:	48 8b 45 b8          	mov    -0x48(%rbp),%rax
  404a02:	48 8b 80 78 13 00 00 	mov    0x1378(%rax),%rax
  404a09:	48 25 00 00 00 80    	and    $0xffffffff80000000,%rax
  404a0f:	48 89 c2             	mov    %rax,%rdx
  404a12:	48 8b 45 b8          	mov    -0x48(%rbp),%rax
  404a16:	48 8b 00             	mov    (%rax),%rax
  404a19:	25 ff ff ff 7f       	and    $0x7fffffff,%eax
  404a1e:	48 09 d0             	or     %rdx,%rax
  404a21:	48 89 45 f8          	mov    %rax,-0x8(%rbp)
  404a25:	48 8b 45 b8          	mov    -0x48(%rbp),%rax
  404a29:	48 8b 80 60 0c 00 00 	mov    0xc60(%rax),%rax
  404a30:	48 8b 55 f8          	mov    -0x8(%rbp),%rdx
  404a34:	48 d1 ea             	shr    %rdx
  404a37:	48 31 c2             	xor    %rax,%rdx
  404a3a:	48 8b 45 f8          	mov    -0x8(%rbp),%rax
  404a3e:	83 e0 01             	and    $0x1,%eax
  404a41:	48 85 c0             	test   %rax,%rax
  404a44:	74 07                	je     404a4d <_ZNSt23mersenne_twister_engineImLm32ELm624ELm397ELm31ELm2567483615ELm11ELm4294967295ELm7ELm2636928640ELm15ELm4022730752ELm18ELm1812433253EE11_M_gen_randEv+0x197>
  404a46:	b8 df b0 08 99       	mov    $0x9908b0df,%eax
  404a4b:	eb 05                	jmp    404a52 <_ZNSt23mersenne_twister_engineImLm32ELm624ELm397ELm31ELm2567483615ELm11ELm4294967295ELm7ELm2636928640ELm15ELm4022730752ELm18ELm1812433253EE11_M_gen_randEv+0x19c>
  404a4d:	b8 00 00 00 00       	mov    $0x0,%eax
  404a52:	48 31 c2             	xor    %rax,%rdx
  404a55:	48 8b 45 b8          	mov    -0x48(%rbp),%rax
  404a59:	48 89 90 78 13 00 00 	mov    %rdx,0x1378(%rax)
  404a60:	48 8b 45 b8          	mov    -0x48(%rbp),%rax
  404a64:	48 c7 80 80 13 00 00 	movq   $0x0,0x1380(%rax)
  404a6b:	00 00 00 00 
  404a6f:	90                   	nop
  404a70:	5d                   	pop    %rbp
  404a71:	c3                   	retq   
  404a72:	66 2e 0f 1f 84 00 00 	nopw   %cs:0x0(%rax,%rax,1)
  404a79:	00 00 00 
  404a7c:	0f 1f 40 00          	nopl   0x0(%rax)

0000000000404a80 <__libc_csu_init>:
  404a80:	41 57                	push   %r15
  404a82:	41 56                	push   %r14
  404a84:	41 89 ff             	mov    %edi,%r15d
  404a87:	41 55                	push   %r13
  404a89:	41 54                	push   %r12
  404a8b:	4c 8d 25 46 13 20 00 	lea    0x201346(%rip),%r12        # 605dd8 <__frame_dummy_init_array_entry>
  404a92:	55                   	push   %rbp
  404a93:	48 8d 2d 4e 13 20 00 	lea    0x20134e(%rip),%rbp        # 605de8 <__init_array_end>
  404a9a:	53                   	push   %rbx
  404a9b:	49 89 f6             	mov    %rsi,%r14
  404a9e:	49 89 d5             	mov    %rdx,%r13
  404aa1:	4c 29 e5             	sub    %r12,%rbp
  404aa4:	48 83 ec 08          	sub    $0x8,%rsp
  404aa8:	48 c1 fd 03          	sar    $0x3,%rbp
  404aac:	e8 ef d4 ff ff       	callq  401fa0 <_init>
  404ab1:	48 85 ed             	test   %rbp,%rbp
  404ab4:	74 20                	je     404ad6 <__libc_csu_init+0x56>
  404ab6:	31 db                	xor    %ebx,%ebx
  404ab8:	0f 1f 84 00 00 00 00 	nopl   0x0(%rax,%rax,1)
  404abf:	00 
  404ac0:	4c 89 ea             	mov    %r13,%rdx
  404ac3:	4c 89 f6             	mov    %r14,%rsi
  404ac6:	44 89 ff             	mov    %r15d,%edi
  404ac9:	41 ff 14 dc          	callq  *(%r12,%rbx,8)
  404acd:	48 83 c3 01          	add    $0x1,%rbx
  404ad1:	48 39 eb             	cmp    %rbp,%rbx
  404ad4:	75 ea                	jne    404ac0 <__libc_csu_init+0x40>
  404ad6:	48 83 c4 08          	add    $0x8,%rsp
  404ada:	5b                   	pop    %rbx
  404adb:	5d                   	pop    %rbp
  404adc:	41 5c                	pop    %r12
  404ade:	41 5d                	pop    %r13
  404ae0:	41 5e                	pop    %r14
  404ae2:	41 5f                	pop    %r15
  404ae4:	c3                   	retq   
  404ae5:	90                   	nop
  404ae6:	66 2e 0f 1f 84 00 00 	nopw   %cs:0x0(%rax,%rax,1)
  404aed:	00 00 00 

0000000000404af0 <__libc_csu_fini>:
  404af0:	f3 c3                	repz retq 

Disassembly of section .fini:

0000000000404af4 <_fini>:
  404af4:	48 83 ec 08          	sub    $0x8,%rsp
  404af8:	48 83 c4 08          	add    $0x8,%rsp
  404afc:	c3                   	retq   
